((lp0
F353.4136760574221
aF353.41654257023754
aF353.4201506698645
aF353.424691475004
aF353.4304080292009
aF353.43760067824326
aF353.4466516781235
aF353.4580364165154
aF353.47236539712793
aF353.49038976076554
aF353.5130624342061
aF353.5415732063428
aF353.5774357866932
aF353.6225111727462
aF353.6791817154809
aF353.7503778086925
aF353.8398163343824
aF353.9521012133668
aF354.0929835471804
aF354.26962412507
aF354.4908984793849
aF354.76774035425285
aF355.1135638865978
aF355.54466122553987
aF356.0806617616809
aF356.74492146648316
aF357.56465064314665
aF358.5712397783751
aF359.8000766499536
aF361.28998459012746
aF363.0816457644901
aF365.2132414003794
aF367.7162484608046
aF370.61268445852323
aF373.9165403480725
aF377.6419593234146
aF381.8038199970059
aF386.38257260345824
aF391.2773148210221
aF396.32951057440175
aF401.3491864195973
aF406.0944338078583
aF410.3458322955441
aF413.9860406510899
aF416.92241713746546
aF419.05366415900875
aF420.34836587609465
aF420.7782059519633
aF420.32466026821106
aF418.9812719461636
aF416.73269492369116
aF413.5634871843789
aF409.48745775438044
aF404.5062452540365
aF398.65076361726705
aF391.9693219986564
aF384.53683087503384
aF376.4473201517622
aF367.83008610107004
aF358.8272678876899
aF349.57296849674526
aF340.22773503796833
aF331.4512875418683
aF323.2354852483377
aF315.2816169201245
aF307.63575639647377
aF300.3588566615335
aF293.4233834957568
aF286.8967445818974
aF280.92312508322055
aF275.5561770478922
aF270.8019275671953
aF266.6580930172844
aF263.1211283821424
aF260.1821020819456
aF257.82535586612727
aF256.0365270767584
aF254.7884885393374
aF254.04019252990014
aF253.7615429450888
aF253.90071662557537
aF254.37874633240278
aF255.1392309727457
aF256.1362444133591
aF257.298963083452
aF258.5681941222256
aF259.898963081032
aF261.24980926421864
aF262.5954884579385
aF263.9166726842089
aF265.19760132260524
aF266.42789338253255
aF267.60159767226804
aF268.71602685391457
aF269.769427188899
aF270.7621338265951
aF271.6951847636915
aF272.5701489325246
aF273.3888209859153
aF274.15333811056
aF274.8659555369881
aF275.5290743819292
aF276.1451592287115
aF276.7167196645894
aF277.246072714604
aF277.73562668302003
aF278.1879018775139
aF278.6052644726241
aF278.98971623986307
aF279.3436656087576
aF279.66903375345834
aF279.9678430285288
aF280.24203730129443
aF280.4933551901838
aF280.72349947654305
aF280.93409824544426
aF281.1266397123368
aF281.3025209821478
aF281.4630523266602
aF281.6094622271093
aF281.7429015017442
aF209.68707636494608
aF209.6883669365711
aF209.689991384836
aF209.69203575312952
aF209.69460946077038
aF209.6978477229649
aF209.70192262793014
aF209.7070481863419
aF209.71349922875422
aF209.72161388426377
aF209.7318210991911
aF209.74465641093613
aF209.76080111347102
aF209.78109273354727
aF209.8066033223974
aF209.8386513616808
aF209.87890893029297
aF209.92944669794687
aF209.99285060312903
aF210.07233935450782
aF210.17190071837373
aF210.2964445472773
aF210.45199041033865
aF210.64584298632516
aF210.88679347825925
aF211.18528724754555
aF211.55347081672593
aF212.0053239937941
aF212.556558750931
aF213.22434334719898
aF214.02656821355058
aF214.97986868905255
aF216.0977326075391
aF217.38927619705916
aF218.85990721169895
aF220.51498605792955
aF222.36009364088656
aF224.3855538330585
aF226.54607032986377
aF228.77171205263764
aF230.97979718835506
aF233.0661532470788
aF235.13306264979394
aF236.97340121558307
aF238.47169587052989
aF239.5803111458057
aF240.28614235312233
aF240.57725931637478
aF240.44598971575047
aF239.88974001063752
aF238.90013386027303
aF237.4667920080647
aF235.59162983946817
aF233.30553901603724
aF230.8787363780335
aF228.07015635739444
aF224.90171113986602
aF221.40064624100438
aF217.59918901979816
aF213.52869417761963
aF209.23589540257007
aF204.78841128488824
aF200.23294850841333
aF195.6054126357996
aF190.9636451797017
aF186.31988618466912
aF181.7054421371339
aF177.12992040065137
aF172.6403670925029
aF168.3006479794196
aF164.1667382861181
aF160.47236060202692
aF157.1886996574711
aF154.17233228443587
aF151.44072817131635
aF149.01102023206494
aF146.9053790823303
aF145.13764025058902
aF143.71204196258296
aF142.63831193536188
aF141.90305105664348
aF141.4618334859471
aF141.29686852212885
aF141.40152376542025
aF141.7288081868739
aF142.23217921783248
aF142.8736525369592
aF143.60912979481495
aF144.4123527764509
aF145.25904424270385
aF146.1228497586032
aF146.98425162070043
aF147.83016681583698
aF148.65298558029144
aF149.44574595097495
aF150.20549085997408
aF150.93050831671553
aF151.61998292552926
aF152.27343711563285
aF152.89106869951308
aF153.47333198245187
aF154.02099977725865
aF154.53508427890102
aF155.01686005816836
aF155.46708240096706
aF155.88689665580816
aF156.2781324462148
aF156.64224670043512
aF156.97992702155457
aF157.29330711482214
aF157.5832680677589
aF157.85133015492352
aF158.0989549794412
aF158.32729984326141
aF158.53765910808374
aF158.73131259457938
aF158.90938264545147
aF159.07293752948374
aF159.22300903917215
aF159.36057608899878
aF159.48658979874398
aF133.306890964339
aF133.30766698476953
aF133.30864376487582
aF133.30987304228782
aF133.31142061039816
aF133.31336777341036
aF133.31581800678669
aF133.31889999326216
aF133.32277898535682
aF133.32765829514491
aF133.33379584006906
aF133.34151362601727
aF133.3512212945693
aF133.36342241808163
aF133.37876156901652
aF133.39803146827654
aF133.42223740645053
aF133.45262427155473
aF133.49074666438852
aF133.5385394857148
aF133.59839978389778
aF133.67327861617935
aF133.76679363667088
aF133.88333421544368
aF134.0281820446608
aF134.20761121907066
aF134.42891551896457
aF134.70048650140808
aF135.03175095947722
aF135.43300295663076
aF135.91496037133484
aF136.4875751993496
aF137.15889650745288
aF137.93433674864718
aF138.81707272990653
aF139.81024465503708
aF140.917118140632
aF142.1318179002072
aF143.42716688447666
aF144.76132185672503
aF146.0849273574664
aF147.33591601808095
aF148.45894193985995
aF149.4257388516815
aF150.21463913449023
aF150.80175828910987
aF151.1811435158923
aF151.34733320745184
aF151.29693743703697
aF151.02903966219182
aF150.53950908728407
aF149.822901089324
aF148.87985594203403
aF147.7060667980754
aF146.30334750208306
aF144.67710466206213
aF142.83900255993217
aF140.80286020056698
aF138.58408186759513
aF136.19578708669894
aF133.65833447217412
aF131.0026290892536
aF128.24536521096823
aF125.39632404281996
aF122.48000422140214
aF119.49693737297714
aF116.46297729964898
aF113.38130866692951
aF110.40621398519066
aF107.48553858423826
aF104.6132414747132
aF101.80342760832208
aF99.06955861743889
aF96.42884757035466
aF93.90203099200039
aF91.51536344034402
aF89.30013250360206
aF87.28464366384081
aF85.49374839672416
aF83.95087540919329
aF82.65693407209989
aF81.59218183069804
aF80.7577244217164
aF80.1616462453429
aF79.78111712946718
aF79.58729062016579
aF79.55408134945777
aF79.64957750251982
aF79.86155012609515
aF80.17538771544511
aF80.56269335914787
aF80.99886660929704
aF81.46510217213071
aF81.94895961646397
aF82.43665819313073
aF82.92101623193714
aF83.39706385529635
aF83.86142125027905
aF84.31121732257732
aF84.74491581713009
aF85.16134091563815
aF85.55980569334017
aF85.94007495893804
aF86.30256264004646
aF86.64591702683569
aF86.96975406870314
aF87.27589421080641
aF87.56493780128133
aF87.835170518457
aF88.08944162974178
aF88.32672535986592
aF88.54819890568416
aF88.75491566663992
aF88.9471557040332
aF89.12579153024356
aF89.29177900855464
aF89.44575483103092
aF89.5883349607233
aF89.72018852860356
aF89.84195819446313
aF89.95436658891091
aF86.42079065164624
aF86.42128364695324
aF86.42190418214395
aF86.42268512541585
aF86.42366827436433
aF86.42490528036076
aF86.42646187982037
aF86.42841982287355
aF86.43088409176362
aF86.43398384715394
aF86.43788293926869
aF86.4427859320561
aF86.44895306193557
aF86.45670423622715
aF86.46644893432745
aF86.478690747093
aF86.49406829952429
aF86.51337241634931
aF86.53759065772415
aF86.56795215053177
aF86.60597956717353
aF86.65354745686479
aF86.7129537311098
aF86.78698638650485
aF86.87900004129528
aF86.99297940038674
aF87.13355643563663
aF87.30605979045718
aF87.5164747954545
aF87.77133649150841
aF88.07744775305724
aF88.44112374976116
aF88.86747033876773
aF89.35991905699359
aF89.9204829266033
aF90.55115352595391
aF91.25400518705082
aF92.02531955971101
aF92.84788102175017
aF93.6951992034322
aF94.53605597169383
aF95.33121577100151
aF96.04574734124793
aF96.66191979337374
aF97.1662141861114
aF97.54373567469817
aF97.79098160792591
aF97.9047919471584
aF97.88335229246906
aF97.7264499216475
aF97.43186806339233
aF96.99657824357651
aF96.42142591536458
aF95.70410432464504
aF94.84614674926756
aF93.85128307120549
aF92.72707640573236
aF91.48224453900573
aF90.1262055776896
aF88.6665177501894
aF87.11488737074434
aF85.4893028197579
aF83.79831122867304
aF82.04590116572159
aF80.24554559796245
aF78.39798417764176
aF76.56864581338439
aF74.70446120554503
aF72.8141447557633
aF70.90505346895584
aF68.98294850541254
aF67.05392647804827
aF65.12406383915328
aF63.20055522712995
aF61.29219419342754
aF59.41132960156439
aF57.574589955078444
aF55.80234772439159
aF54.174225080847265
aF52.805045776515556
aF51.54414594123451
aF50.391870874564795
aF49.36138686274735
aF48.467043655596754
aF47.71178618124913
aF47.08868626547103
aF46.58097247457293
aF46.17108464913806
aF45.8640961759703
aF45.66617563387329
aF45.564375369110735
aF45.54400932219229
aF45.593104421989466
aF45.70267178846719
aF45.85574995860796
aF46.04106227881963
aF46.24932642967643
aF46.47284397386038
aF46.70451158674833
aF46.940237928842365
aF47.1767351723898
aF47.41172319456211
aF47.64398899697531
aF47.87407640282992
aF48.09710987622523
aF48.310598683642745
aF48.518446554494844
aF48.72080763763317
aF48.91089103855698
aF49.09512748570806
aF49.26856051639357
aF49.432688372568116
aF49.588565951008896
aF49.735062190680914
aF49.87281110627514
aF50.002704621660826
aF50.124786654718115
aF50.239096888821194
aF50.345906142359844
aF50.445471818617726
aF50.538370207948994
aF56.899727184918255
aF56.900040073006004
aF56.900433906438046
aF56.90092954553643
aF56.90155351776439
aF56.902338604394096
aF56.9033265259129
aF56.904569165999206
aF56.906133152708854
aF56.908100458888384
aF56.91057507296944
aF56.9136868218625
aF56.917600864067055
aF56.92252022625824
aF56.92870477872737
aF56.9364741137199
aF56.94623351316007
aF56.95848483636435
aF56.973854774593605
aF56.993123287341646
aF57.01725656594588
aF57.047444015585995
aF57.08514356569922
aF57.1321239296126
aF57.19051305194175
aF57.26283820547529
aF57.352036645935115
aF57.4614866233932
aF57.59498156532168
aF57.75666165248451
aF57.950834392552316
aF58.18149487116486
aF58.4518679365329
aF58.76411364095991
aF59.11949017196568
aF59.519240055813654
aF59.96465660986592
aF60.453364635762476
aF60.974450606698845
aF61.511150090493004
aF62.043735700932565
aF62.54744235557654
aF63.00026214534497
aF63.39108751940211
aF63.71148758413335
aF63.95217257167973
aF64.11106059863306
aF64.18629353867459
aF64.17687192592443
aF64.08281855383484
aF63.90290118958081
aF63.63538365243432
aF63.28099071300764
aF62.83845832068507
aF62.308954256062485
aF61.695036199296716
aF61.00168558960845
aF60.23460529558127
aF59.39992068608567
aF58.50253735361644
aF57.54996217949467
aF56.553701219283845
aF55.51922861097527
aF54.455109135016244
aF53.41801838034028
aF52.35159829144692
aF51.26066528419128
aF50.14411915265289
aF49.0043749876218
aF47.842932383304436
aF46.66061565191625
aF45.458864761368304
aF44.23905382987183
aF43.00254890131146
aF41.75032604288633
aF40.48293529245665
aF39.20027795117804
aF37.90552667267027
aF36.739384531209275
aF35.606498681148395
aF34.510612741583614
aF33.45671878024991
aF32.4551058900931
aF31.518063563911607
aF30.65789096624081
aF29.87990957576
aF29.17676837140521
aF28.53906862657178
aF27.975260465439725
aF27.49676094748876
aF27.100326815298427
aF26.77924598923715
aF26.5304090984281
aF26.35444917645438
aF26.247347501466045
aF26.187293788690152
aF26.16881514904695
aF26.185031652221774
aF26.226995635584192
aF26.288742789678686
aF26.364766428585025
aF26.454106777014243
aF26.55171275723833
aF26.659891920108375
aF26.76839639346307
aF26.87190731139604
aF26.980300277797724
aF27.09470126315756
aF27.198942272326562
aF27.30850170219438
aF27.4112058707924
aF27.510370977478853
aF27.608074974903964
aF27.70095350983824
aF27.789932116011386
aF27.876513490171035
aF27.960065463450633
aF28.0398830520891
aF28.11582476571168
aF28.187704374219344
aF28.256180726953836
a(dp1
F381.8038199970059
(dp2
S'radius'
p3
cnumpy.core.multiarray
scalar
p4
(cnumpy
dtype
p5
(S'f8'
p6
I0
I1
tp7
Rp8
(I3
S'<'
p9
NNNI-1
I-1
I0
tp10
bS'\x00\x00\x00\x00\x00\x00\xf0?'
p11
tp12
Rp13
sS'grainsize'
p14
g4
(g8
S"\x8a\xaa\x040\n'\xb0?"
p15
tp16
Rp17
ssF186.31988618466912
(dp18
g3
g4
(g8
S'S[\xda:XL\t@'
p19
tp20
Rp21
sg14
g4
(g8
S'\x16\x18\xb2\xba\xd5s\xfc?'
p22
tp23
Rp24
ssF142.23217921783248
(dp25
g3
g21
sg14
g4
(g8
S'\x0eO\xaf\x94e\xc81@'
p26
tp27
Rp28
ssF56.900040073006004
(dp29
g3
g4
(g8
S'\x00\x00\x00\x00\x00\x00Y@'
p30
tp31
Rp32
sg14
g4
(g8
S'\xc9V\x97S\x02bR?'
p33
tp34
Rp35
ssF27.975260465439725
(dp36
g3
g32
sg14
g4
(g8
S'\x91~\xfb:p\x1e9@'
p37
tp38
Rp39
ssF386.38257260345824
(dp40
g3
g13
sg14
g4
(g8
S'5\xc0\xbbK\x98\x1f\xb2?'
p41
tp42
Rp43
ssF63.71148758413335
(dp44
g3
g32
sg14
g4
(g8
S'\x94K\xe3\x17^I\xc4?'
p45
tp46
Rp47
ssF410.3458322955441
(dp48
g3
g13
sg14
g4
(g8
S'O\xcd\xe5\x06C\x1d\xc0?'
p49
tp50
Rp51
ssF140.917118140632
(dp52
g3
g4
(g8
S'\x00\x00\x00\x00\x00\x00$@'
p53
tp54
Rp55
sg14
g4
(g8
S"\x8a\xaa\x040\n'\xb0?"
p56
tp57
Rp58
ssF367.83008610107004
(dp59
g3
g13
sg14
g4
(g8
S'\xbf\x81\xc9\x8d"k\xe9?'
p60
tp61
Rp62
ssF131.0026290892536
(dp63
g3
g55
sg14
g4
(g8
S'\xa4SW>\xcb\xf3\xf1?'
p64
tp65
Rp66
ssF88.75491566663992
(dp67
g3
g55
sg14
g4
(g8
S'\xc1\xca\xa1E\xb6\xe1x@'
p68
tp69
Rp70
ssF240.44598971575047
(dp71
g3
g21
sg14
g4
(g8
S'>[\x07\x07{\x13\xd0?'
p72
tp73
Rp74
ssF235.13306264979394
(dp75
g3
g21
sg14
g4
(g8
S'O\xcd\xe5\x06C\x1d\xc0?'
p76
tp77
Rp78
ssF133.306890964339
(dp79
g3
g55
sg14
g4
(g8
S'\xfc\xa9\xf1\xd2MbP?'
p80
tp81
Rp82
ssF149.44574595097495
(dp83
g3
g21
sg14
g4
(g8
S'\x81\x04\xc5\x8f1\x0fI@'
p84
tp85
Rp86
ssF134.42891551896457
(dp87
g3
g55
sg14
g4
(g8
S'$t\xe1Qtn\x94?'
p88
tp89
Rp90
ssF28.256180726953836
(dp91
g3
g32
sg14
g4
(g8
S'\x00\x00\x00\x00\x00@\x8f@'
p92
tp93
Rp94
ssF156.97992702155457
(dp95
g3
g21
sg14
g4
(g8
S'5^\xbaI\x0cfo@'
p96
tp97
Rp98
ssF78.39798417764176
(dp99
g3
g4
(g8
S"'\xf2\x90In\x9f?@"
p100
tp101
Rp102
sg14
g4
(g8
S'\x16\x18\xb2\xba\xd5s\xfc?'
p103
tp104
Rp105
ssF133.34151362601727
(dp106
g3
g55
sg14
g4
(g8
S'\x84b\xd0\xae\xe7\x10m?'
p107
tp108
Rp109
ssF209.7318210991911
(dp110
g3
g21
sg14
g4
(g8
S'p\x83\x90\xe2\xd2\xe7i?'
p111
tp112
Rp113
ssF404.5062452540365
(dp114
g3
g13
sg14
g4
(g8
S'\xab_\xe9|x\x96\xdc?'
p115
tp116
Rp117
ssF137.93433674864718
(dp118
g3
g55
sg14
g4
(g8
S'\x88LT\xca\xc6\xde\xa6?'
p119
tp120
Rp121
ssF58.4518679365329
(dp122
g3
g32
sg14
g4
(g8
S'\xd3\xcd\x0fm\x11b\xa4?'
p123
tp124
Rp125
ssF63.00026214534497
(dp126
g3
g32
sg14
g4
(g8
S'O\xcd\xe5\x06C\x1d\xc0?'
p127
tp128
Rp129
ssF133.59839978389778
(dp130
g3
g55
sg14
g4
(g8
S'{\x14\xaeG\xe1z\x84?'
p131
tp132
Rp133
ssF86.51337241634931
(dp134
g3
g102
sg14
g4
(g8
S'mq\x8d\xcfd\xff|?'
p135
tp136
Rp137
ssF91.48224453900573
(dp138
g3
g102
sg14
g4
(g8
S'B\xb0\xaa^~\xa7\xe6?'
p139
tp140
Rp141
ssF157.85133015492352
(dp142
g3
g21
sg14
g4
(g8
S'^\xbaI\x0c\x02-v@'
p143
tp144
Rp145
ssF90.55115352595391
(dp146
g3
g102
sg14
g4
(g8
S'g\t\xd7H\xb7\xca\xac?'
p147
tp148
Rp149
ssF62.83845832068507
(dp150
g3
g32
sg14
g4
(g8
S'\xab_\xe9|x\x96\xdc?'
p151
tp152
Rp153
ssF236.97340121558307
(dp154
g3
g21
sg14
g4
(g8
S'\x80\xef6o\x9c\x14\xc2?'
p155
tp156
Rp157
ssF135.03175095947722
(dp158
g3
g55
sg14
g4
(g8
S'0\xc5\x0b\xd8\xc4\xb8\x99?'
p159
tp160
Rp161
ssF230.8787363780335
(dp162
g3
g21
sg14
g4
(g8
S'r\xc5\xc5Q\xb9\t\xe0?'
p163
tp164
Rp165
ssF273.3888209859153
(dp166
g3
g13
sg14
g4
(g8
S']m\xc5\xfe\xb2\xdbS@'
p167
tp168
Rp169
ssF210.88679347825925
(dp170
g3
g21
sg14
g4
(g8
S'\x10\xd6\xb5\xac\xb1:\x90?'
p171
tp172
Rp173
ssF56.92252022625824
(dp174
g3
g32
sg14
g4
(g8
S'\x882\xaf~\xc7Kr?'
p175
tp176
Rp177
ssF416.73269492369116
(dp178
g3
g13
sg14
g4
(g8
S'U\x16\x85]\x14=\xd4?'
p179
tp180
Rp181
ssF61.29219419342754
(dp182
g3
g102
sg14
g4
(g8
S"\xce67\xa6'\x0c\x14@"
p183
tp184
Rp185
ssF216.0977326075391
(dp186
g3
g21
sg14
g4
(g8
S'\xd3\xcd\x0fm\x11b\xa4?'
p187
tp188
Rp189
ssF53.41801838034028
(dp190
g3
g32
sg14
g4
(g8
S'y\x1e\xdc\x9d\xb5[\xf9?'
p191
tp192
Rp193
ssF49.09512748570806
(dp194
g3
g102
sg14
g4
(g8
S'\xc5 \xb0rh\x9dq@'
p195
tp196
Rp197
ssF56.9136868218625
(dp198
g3
g32
sg14
g4
(g8
S'\x84b\xd0\xae\xe7\x10m?'
p199
tp200
Rp201
ssF263.1211283821424
(dp202
g3
g13
sg14
g4
(g8
S'\xcb\xdb\x11N\x0b\xde\x11@'
p203
tp204
Rp205
ssF83.95087540919329
(dp206
g3
g55
sg14
g4
(g8
S'\xc1\x8b\xbe\x824\xd3!@'
p207
tp208
Rp209
ssF93.6951992034322
(dp210
g3
g102
sg14
g4
(g8
S'\xe3\xb2\xc0\r\xe7\xd0\xb6?'
p211
tp212
Rp213
ssF99.06955861743889
(dp214
g3
g55
sg14
g4
(g8
S'\x9a\xb1h:;\xd9\x0f@'
p215
tp216
Rp217
ssF28.11582476571168
(dp218
g3
g32
sg14
g4
(g8
S'\xb4\xc8v\xbe\x9f\xd2\x88@'
p219
tp220
Rp221
ssF266.42789338253255
(dp222
g3
g13
sg14
g4
(g8
S'K\xc8\x07=\x9b\xbdA@'
p223
tp224
Rp225
ssF259.898963081032
(dp226
g3
g13
sg14
g4
(g8
S'k+\xf6\x97\xdd\xf33@'
p227
tp228
Rp229
ssF150.53950908728407
(dp230
g3
g55
sg14
g4
(g8
S'U\x16\x85]\x14=\xd4?'
p231
tp232
Rp233
ssF57.54996217949467
(dp234
g3
g32
sg14
g4
(g8
S'\x00\x00\x00\x00\x00\x00\xf0?'
p235
tp236
Rp237
ssF26.77924598923715
(dp238
g3
g32
sg14
g4
(g8
S'K\xc8\x07=\x9b\xbdA@'
p239
tp240
Rp241
ssF79.58729062016579
(dp242
g3
g55
sg14
g4
(g8
S'\x0eO\xaf\x94e\xc81@'
p243
tp244
Rp245
ssF46.04106227881963
(dp246
g3
g102
sg14
g4
(g8
S'.\xff!\xfd\xf6\x1dL@'
p247
tp248
Rp249
ssF353.5774357866932
(dp250
g3
g13
sg14
g4
(g8
S'\xael\xd5d|Np?'
p251
tp252
Rp253
ssF79.64957750251982
(dp254
g3
g55
sg14
g4
(g8
S'\xde\x02\t\x8a\x1fc6@'
p255
tp256
Rp257
ssF49.36138686274735
(dp258
g3
g102
sg14
g4
(g8
S'\xcb\x10\xc7\xba\xb8-)@'
p259
tp260
Rp261
ssF67.05392647804827
(dp262
g3
g102
sg14
g4
(g8
S'\xdf\xa6?\xfb\x91b\x0c@'
p263
tp264
Rp265
ssF41.75032604288633
(dp266
g3
g32
sg14
g4
(g8
S"\xce67\xa6'\x0c\x14@"
p267
tp268
Rp269
ssF84.74491581713009
(dp270
g3
g55
sg14
g4
(g8
S'\xb2.n\xa3\x01HV@'
p271
tp272
Rp273
ssF210.45199041033865
(dp274
g3
g21
sg14
g4
(g8
S'\xb1{<>k\xc8\x89?'
p275
tp276
Rp277
ssF91.51536344034402
(dp278
g3
g55
sg14
g4
(g8
S'X\xff\xe70_~\x16@'
p279
tp280
Rp281
ssF64.17687192592443
(dp282
g3
g32
sg14
g4
(g8
S'>[\x07\x07{\x13\xd0?'
p283
tp284
Rp285
ssF228.07015635739444
(dp286
g3
g21
sg14
g4
(g8
S'\xe0e\x86\x8d\xb2\xfe\xe1?'
p287
tp288
Rp289
ssF56.91057507296944
(dp290
g3
g32
sg14
g4
(g8
S'p\x83\x90\xe2\xd2\xe7i?'
p291
tp292
Rp293
ssF47.64398899697531
(dp294
g3
g102
sg14
g4
(g8
S'\xfe\xd4x\xe9&y_@'
p295
tp296
Rp297
ssF64.18629353867459
(dp298
g3
g32
sg14
g4
(g8
S'\xfd\xbb>s\xd6\xa7\xcc?'
p299
tp300
Rp301
ssF96.42884757035466
(dp302
g3
g55
sg14
g4
(g8
S'\xcb\xdb\x11N\x0b\xde\x11@'
p303
tp304
Rp305
ssF209.69460946077038
(dp306
g3
g21
sg14
g4
(g8
S'\xff-\xb7j\x8d\xf7Y?'
p307
tp308
Rp309
ssF39.20027795117804
(dp310
g3
g32
sg14
g4
(g8
S'wJ\x07\xeb\xff<\x19@'
p311
tp312
Rp313
ssF210.64584298632516
(dp314
g3
g21
sg14
g4
(g8
S'\x9a\xe5W\x18\xc7\xed\x8c?'
p315
tp316
Rp317
ssF141.40152376542025
(dp318
g3
g21
sg14
g4
(g8
S'9\xd6\xc5m4@,@'
p319
tp320
Rp321
ssF367.7162484608046
(dp322
g3
g13
sg14
g4
(g8
S'\xd3\xcd\x0fm\x11b\xa4?'
p323
tp324
Rp325
ssF29.87990957576
(dp326
g3
g32
sg14
g4
(g8
S'\x0eO\xaf\x94e\xc81@'
p327
tp328
Rp329
ssF254.04019252990014
(dp330
g3
g13
sg14
g4
(g8
S'.\xe2;1\xeb\xc5\x1f@'
p331
tp332
Rp333
ssF47.1767351723898
(dp334
g3
g102
sg14
g4
(g8
S'\x00\x00\x00\x00\x00\x00Y@'
p335
tp336
Rp337
ssF33.45671878024991
(dp338
g3
g32
sg14
g4
(g8
S'\x8d(\xed\r\xbep&@'
p339
tp340
Rp341
ssF28.0398830520891
(dp342
g3
g32
sg14
g4
(g8
S'!\xb0rh\x91\x1f\x86@'
p343
tp344
Rp345
ssF89.5883349607233
(dp346
g3
g55
sg14
g4
(g8
S'!\xb0rh\x91\x1f\x86@'
p347
tp348
Rp349
ssF26.288742789678686
(dp350
g3
g32
sg14
g4
(g8
S'\xb2.n\xa3\x01HV@'
p351
tp352
Rp353
ssF156.64224670043512
(dp354
g3
g21
sg14
g4
(g8
S'\x96C\x8bl\xe7\xfbk@'
p355
tp356
Rp357
ssF86.42366827436433
(dp358
g3
g102
sg14
g4
(g8
S'\xff-\xb7j\x8d\xf7Y?'
p359
tp360
Rp361
ssF63.95217257167973
(dp362
g3
g32
sg14
g4
(g8
S'E\x13(b\x11\xc3\xc6?'
p363
tp364
Rp365
ssF48.09710987622523
(dp366
g3
g102
sg14
g4
(g8
S'\xcf\xf7S\xe3\xa5\xcfc@'
p367
tp368
Rp369
ssF141.90305105664348
(dp370
g3
g21
sg14
g4
(g8
S'\x00\x00\x00\x00\x00\x00$@'
p371
tp372
Rp373
ssF46.940237928842365
(dp374
g3
g102
sg14
g4
(g8
S'\xb2.n\xa3\x01HV@'
p375
tp376
Rp377
ssF138.58408186759513
(dp378
g3
g55
sg14
g4
(g8
S'\xbf\x81\xc9\x8d"k\xe9?'
p379
tp380
Rp381
ssF86.46644893432745
(dp382
g3
g102
sg14
g4
(g8
S'0\x02t\xa9[\x87t?'
p383
tp384
Rp385
ssF340.22773503796833
(dp386
g3
g13
sg14
g4
(g8
S'\xa4SW>\xcb\xf3\xf1?'
p387
tp388
Rp389
ssF46.58097247457293
(dp390
g3
g102
sg14
g4
(g8
S'k+\xf6\x97\xdd\xf33@'
p391
tp392
Rp393
ssF177.12992040065137
(dp394
g3
g21
sg14
g4
(g8
S'~5\x07\x08\xe6\xe8\x01@'
p395
tp396
Rp397
ssF353.47236539712793
(dp398
g3
g13
sg14
g4
(g8
S'\xe6\xef9\x0b\xd6\x93d?'
p399
tp400
Rp401
ssF134.70048650140808
(dp402
g3
g55
sg14
g4
(g8
S'1ce\x8f\xab\xec\x96?'
p403
tp404
Rp405
ssF133.37876156901652
(dp406
g3
g55
sg14
g4
(g8
S'0\x02t\xa9[\x87t?'
p407
tp408
Rp409
ssF224.90171113986602
(dp410
g3
g21
sg14
g4
(g8
S',\xd5\x05\xbc\xcc0\xe4?'
p411
tp412
Rp413
ssF97.9047919471584
(dp414
g3
g102
sg14
g4
(g8
S'\xfd\xbb>s\xd6\xa7\xcc?'
p415
tp416
Rp417
ssF119.49693737297714
(dp418
g3
g55
sg14
g4
(g8
S'\x16\x18\xb2\xba\xd5s\xfc?'
p419
tp420
Rp421
ssF413.9860406510899
(dp422
g3
g13
sg14
g4
(g8
S'\x80\xef6o\x9c\x14\xc2?'
p423
tp424
Rp425
ssF40.48293529245665
(dp426
g3
g32
sg14
g4
(g8
S'X\xff\xe70_~\x16@'
p427
tp428
Rp429
ssF50.391870874564795
(dp430
g3
g102
sg14
g4
(g8
S'\x8d(\xed\r\xbep&@'
p431
tp432
Rp433
ssF272.5701489325246
(dp434
g3
g13
sg14
g4
(g8
S'\xb4Y\xf5\xb9\xda\xb2Q@'
p435
tp436
Rp437
ssF51.54414594123451
(dp438
g3
g102
sg14
g4
(g8
S'\x00\x00\x00\x00\x00\x00$@'
p439
tp440
Rp441
ssF56.902338604394096
(dp442
g3
g32
sg14
g4
(g8
S'\xd0#\xeb\x15\xbb"]?'
p443
tp444
Rp445
ssF92.02531955971101
(dp446
g3
g102
sg14
g4
(g8
S'5\xc0\xbbK\x98\x1f\xb2?'
p447
tp448
Rp449
ssF159.36057608899878
(dp450
g3
g21
sg14
g4
(g8
S'^\xbaI\x0c\x02\xda\x8b@'
p451
tp452
Rp453
ssF27.09470126315756
(dp454
g3
g32
sg14
g4
(g8
S'\x96C\x8bl\xe7\xfbk@'
p455
tp456
Rp457
ssF26.5304090984281
(dp458
g3
g32
sg14
g4
(g8
S'\x00o\x81\x04\xc5\xe7C@'
p459
tp460
Rp461
ssF268.71602685391457
(dp462
g3
g13
sg14
g4
(g8
S'\xbdR\x96!\x8eUF@'
p463
tp464
Rp465
ssF143.42716688447666
(dp466
g3
g55
sg14
g4
(g8
S'2\xce:>\xb5U\xb4?'
p467
tp468
Rp469
ssF49.0043749876218
(dp470
g3
g32
sg14
g4
(g8
S'\x0e2\xc9\xc8Y\x18\x04@'
p471
tp472
Rp473
ssF354.0929835471804
(dp474
g3
g13
sg14
g4
(g8
S'\x08N\xc7\xad\x93D\x80?'
p475
tp476
Rp477
ssF146.9053790823303
(dp478
g3
g21
sg14
g4
(g8
S'wJ\x07\xeb\xff<\x19@'
p479
tp480
Rp481
ssF265.19760132260524
(dp482
g3
g13
sg14
g4
(g8
S'\xe5\xf2\x1f\xd2o\x9f?@'
p483
tp484
Rp485
ssF238.90013386027303
(dp486
g3
g21
sg14
g4
(g8
S'U\x16\x85]\x14=\xd4?'
p487
tp488
Rp489
ssF150.20549085997408
(dp490
g3
g21
sg14
g4
(g8
S'.\xff!\xfd\xf6\x1dL@'
p491
tp492
Rp493
ssF86.53759065772415
(dp494
g3
g102
sg14
g4
(g8
S'\x08N\xc7\xad\x93D\x80?'
p495
tp496
Rp497
ssF57.19051305194175
(dp498
g3
g32
sg14
g4
(g8
S'\x10\xd6\xb5\xac\xb1:\x90?'
p499
tp500
Rp501
ssF28.187704374219344
(dp502
g3
g32
sg14
g4
(g8
S'^\xbaI\x0c\x02\xda\x8b@'
p503
tp504
Rp505
ssF50.445471818617726
(dp506
g3
g102
sg14
g4
(g8
S'^\xbaI\x0c\x02\xda\x8b@'
p507
tp508
Rp509
ssF420.34836587609465
(dp510
g3
g13
sg14
g4
(g8
S'-\xd1Yf\x11\x8a\xc9?'
p511
tp512
Rp513
ssF226.54607032986377
(dp514
g3
g21
sg14
g4
(g8
S'2\xce:>\xb5U\xb4?'
p515
tp516
Rp517
ssF240.57725931637478
(dp518
g3
g21
sg14
g4
(g8
S'\xfd\xbb>s\xd6\xa7\xcc?'
p519
tp520
Rp521
ssF32.4551058900931
(dp522
g3
g32
sg14
g4
(g8
S'\xcb\x10\xc7\xba\xb8-)@'
p523
tp524
Rp525
ssF154.53508427890102
(dp526
g3
g21
sg14
g4
(g8
S'\xfe\xd4x\xe9&y_@'
p527
tp528
Rp529
ssF92.72707640573236
(dp530
g3
g102
sg14
g4
(g8
S',\xd5\x05\xbc\xcc0\xe4?'
p531
tp532
Rp533
ssF164.1667382861181
(dp534
g3
g21
sg14
g4
(g8
S'\xea[\xe6tYL\t@'
p535
tp536
Rp537
ssF363.0816457644901
(dp538
g3
g13
sg14
g4
(g8
S'w\xab\x9d\x17\xdd0\xa0?'
p539
tp540
Rp541
ssF87.5164747954545
(dp542
g3
g102
sg14
g4
(g8
S'0\xc5\x0b\xd8\xc4\xb8\x99?'
p543
tp544
Rp545
ssF48.72080763763317
(dp546
g3
g102
sg14
g4
(g8
S'\x96C\x8bl\xe7\xfbk@'
p547
tp548
Rp549
ssF233.0661532470788
(dp550
g3
g21
sg14
g4
(g8
S'\x06\xb9\x8b0E\xb9\xbc?'
p551
tp552
Rp553
ssF82.92101623193714
(dp554
g3
g55
sg14
g4
(g8
S'.\xff!\xfd\xf6\x1dL@'
p555
tp556
Rp557
ssF365.2132414003794
(dp558
g3
g13
sg14
g4
(g8
S'\x997=\xde\x9a*\xa2?'
p559
tp560
Rp561
ssF96.99657824357651
(dp562
g3
g102
sg14
g4
(g8
S'\x7f\x85\xcc\x95A\xb5\xd6?'
p563
tp564
Rp565
ssF35.606498681148395
(dp566
g3
g32
sg14
g4
(g8
S'\xc1\x8b\xbe\x824\xd3!@'
p567
tp568
Rp569
ssF133.76679363667088
(dp570
g3
g55
sg14
g4
(g8
S'\xb1{<>k\xc8\x89?'
p571
tp572
Rp573
ssF133.30766698476953
(dp574
g3
g55
sg14
g4
(g8
S'\xc9V\x97S\x02bR?'
p575
tp576
Rp577
ssF168.3006479794196
(dp578
g3
g21
sg14
g4
(g8
S'\x95\x9a=\xd0\n\x8c\x06@'
p579
tp580
Rp581
ssF274.8659555369881
(dp582
g3
g13
sg14
g4
(g8
S'\x00\x00\x00\x00\x00\x00Y@'
p583
tp584
Rp585
ssF237.4667920080647
(dp586
g3
g21
sg14
g4
(g8
S'\x7f\x85\xcc\x95A\xb5\xd6?'
p587
tp588
Rp589
ssF27.30850170219438
(dp590
g3
g32
sg14
g4
(g8
S'\xc5 \xb0rh\x9dq@'
p591
tp592
Rp593
ssF133.42223740645053
(dp594
g3
g55
sg14
g4
(g8
S'\xe2\xd8iZ\x18\xd8y?'
p595
tp596
Rp597
ssF255.1392309727457
(dp598
g3
g13
sg14
g4
(g8
S'\xcb\x10\xc7\xba\xb8-)@'
p599
tp600
Rp601
ssF57.08514356569922
(dp602
g3
g32
sg14
g4
(g8
S'\xb1{<>k\xc8\x89?'
p603
tp604
Rp605
ssF209.71349922875422
(dp606
g3
g21
sg14
g4
(g8
S'\xe6\xef9\x0b\xd6\x93d?'
p607
tp608
Rp609
ssF358.8272678876899
(dp610
g3
g13
sg14
g4
(g8
S'\x9c\xdf0\xd1 \x85\xec?'
p611
tp612
Rp613
ssF83.39706385529635
(dp614
g3
g55
sg14
g4
(g8
S'\x15\x1d\xc9\xe5?\x8cO@'
p615
tp616
Rp617
ssF230.97979718835506
(dp618
g3
g21
sg14
g4
(g8
S'\x9a\x99\x99\x99\x99\x99\xb9?'
p619
tp620
Rp621
ssF315.2816169201245
(dp622
g3
g13
sg14
g4
(g8
S'y\x1e\xdc\x9d\xb5[\xf9?'
p623
tp624
Rp625
ssF158.53765910808374
(dp626
g3
g21
sg14
g4
(g8
S'\xa2E\xb6\xf3\xfdR\x7f@'
p627
tp628
Rp629
ssF50.124786654718115
(dp630
g3
g102
sg14
g4
(g8
S'-\xb2\x9d\xef\xa7\xb7\x83@'
p631
tp632
Rp633
ssF27.100326815298427
(dp634
g3
g32
sg14
g4
(g8
S'\xe5\xf2\x1f\xd2o\x9f?@'
p635
tp636
Rp637
ssF80.24554559796245
(dp638
g3
g102
sg14
g4
(g8
S'y\x1e\xdc\x9d\xb5[\xf9?'
p639
tp640
Rp641
ssF209.87890893029297
(dp642
g3
g21
sg14
g4
(g8
S'\xe2\xd8iZ\x18\xd8y?'
p643
tp644
Rp645
ssF83.86142125027905
(dp646
g3
g55
sg14
g4
(g8
S'\xb4Y\xf5\xb9\xda\xb2Q@'
p647
tp648
Rp649
ssF140.80286020056698
(dp650
g3
g55
sg14
g4
(g8
S'B\xb0\xaa^~\xa7\xe6?'
p651
tp652
Rp653
ssF420.7782059519633
(dp654
g3
g13
sg14
g4
(g8
S'\xfd\xbb>s\xd6\xa7\xcc?'
p655
tp656
Rp657
ssF57.352036645935115
(dp658
g3
g32
sg14
g4
(g8
S'$t\xe1Qtn\x94?'
p659
tp660
Rp661
ssF195.6054126357996
(dp662
g3
g21
sg14
g4
(g8
S'`\xab\x04\x8b\xc3\x99\xf6?'
p663
tp664
Rp665
ssF62.54744235557654
(dp666
g3
g32
sg14
g4
(g8
S'\x06\xb9\x8b0E\xb9\xbc?'
p667
tp668
Rp669
ssF323.2354852483377
(dp670
g3
g13
sg14
g4
(g8
S'`\xab\x04\x8b\xc3\x99\xf6?'
p671
tp672
Rp673
ssF266.6580930172844
(dp674
g3
g13
sg14
g4
(g8
S'\x9a\xb1h:;\xd9\x0f@'
p675
tp676
Rp677
ssF142.63831193536188
(dp678
g3
g21
sg14
g4
(g8
S'\xc1\x8b\xbe\x824\xd3!@'
p679
tp680
Rp681
ssF80.17538771544511
(dp682
g3
g55
sg14
g4
(g8
S';\x01M\x84\r/<@'
p683
tp684
Rp685
ssF257.298963083452
(dp686
g3
g13
sg14
g4
(g8
S'\x18&S\x05\xa3\xb2/@'
p687
tp688
Rp689
ssF107.48553858423826
(dp690
g3
g55
sg14
g4
(g8
S'\x95\x9a=\xd0\n\x8c\x06@'
p691
tp692
Rp693
ssF79.55408134945777
(dp694
g3
g55
sg14
g4
(g8
S'k+\xf6\x97\xdd\xf33@'
p695
tp696
Rp697
ssF85.49374839672416
(dp698
g3
g55
sg14
g4
(g8
S'.\xe2;1\xeb\xc5\x1f@'
p699
tp700
Rp701
ssF133.65833447217412
(dp702
g3
g55
sg14
g4
(g8
S'\x00\x00\x00\x00\x00\x00\xf0?'
p703
tp704
Rp705
ssF80.99886660929704
(dp706
g3
g55
sg14
g4
(g8
S'K\xc8\x07=\x9b\xbdA@'
p707
tp708
Rp709
ssF55.51922861097527
(dp710
g3
g32
sg14
g4
(g8
S'\xa3@\x9f\xc8\x93$\xf4?'
p711
tp712
Rp713
ssF209.6883669365711
(dp714
g3
g21
sg14
g4
(g8
S'\xc9V\x97S\x02bR?'
p715
tp716
Rp717
ssF86.4427859320561
(dp718
g3
g102
sg14
g4
(g8
S'\x84b\xd0\xae\xe7\x10m?'
p719
tp720
Rp721
ssF133.31336777341036
(dp722
g3
g55
sg14
g4
(g8
S'\xd0#\xeb\x15\xbb"]?'
p723
tp724
Rp725
ssF212.0053239937941
(dp726
g3
g21
sg14
g4
(g8
S'1ce\x8f\xab\xec\x96?'
p727
tp728
Rp729
ssF353.4580364165154
(dp730
g3
g13
sg14
g4
(g8
S'\xa9D#\xe9\xe4Vb?'
p731
tp732
Rp733
ssF280.92312508322055
(dp734
g3
g13
sg14
g4
(g8
S'\x95\x9a=\xd0\n\x8c\x06@'
p735
tp736
Rp737
ssF50.002704621660826
(dp738
g3
g102
sg14
g4
(g8
S'}?5^\xba\x92\x81@'
p739
tp740
Rp741
ssF26.76839639346307
(dp742
g3
g32
sg14
g4
(g8
S'\xcf\xf7S\xe3\xa5\xcfc@'
p743
tp744
Rp745
ssF68.98294850541254
(dp746
g3
g102
sg14
g4
(g8
S'\xea[\xe6tYL\t@'
p747
tp748
Rp749
ssF49.588565951008896
(dp750
g3
g102
sg14
g4
(g8
S'\xc1\xca\xa1E\xb6\xe1x@'
p751
tp752
Rp753
ssF235.59162983946817
(dp754
g3
g21
sg14
g4
(g8
S'H\xc1S\xc8\x95z\xd9?'
p755
tp756
Rp757
ssF238.47169587052989
(dp758
g3
g21
sg14
g4
(g8
S'\x94K\xe3\x17^I\xc4?'
p759
tp760
Rp761
ssF353.49038976076554
(dp762
g3
g13
sg14
g4
(g8
S'\x03*w\xfa\x9c\x16g?'
p763
tp764
Rp765
ssF86.99297940038674
(dp766
g3
g102
sg14
g4
(g8
S'\x04\xa9\xb9\x81\xa75\x92?'
p767
tp768
Rp769
ssF86.45670423622715
(dp770
g3
g102
sg14
g4
(g8
S'\x882\xaf~\xc7Kr?'
p771
tp772
Rp773
ssF89.84195819446313
(dp774
g3
g55
sg14
g4
(g8
S'^\xbaI\x0c\x02\xda\x8b@'
p775
tp776
Rp777
ssF58.50253735361644
(dp778
g3
g32
sg14
g4
(g8
S'\x9c\xdf0\xd1 \x85\xec?'
p779
tp780
Rp781
ssF57.047444015585995
(dp782
g3
g32
sg14
g4
(g8
S'8\xc7o\xc0\x9d\xfa\x86?'
p783
tp784
Rp785
ssF373.9165403480725
(dp786
g3
g13
sg14
g4
(g8
S'\xb6\x08\xd6\x82(\xa9\xa9?'
p787
tp788
Rp789
ssF209.70192262793014
(dp790
g3
g21
sg14
g4
(g8
S'\xb4\xd8\xdc\x87rX`?'
p791
tp792
Rp793
ssF149.4257388516815
(dp794
g3
g55
sg14
g4
(g8
S'\x80\xef6o\x9c\x14\xc2?'
p795
tp796
Rp797
ssF97.79098160792591
(dp798
g3
g102
sg14
g4
(g8
S'-\xd1Yf\x11\x8a\xc9?'
p799
tp800
Rp801
ssF133.36342241808163
(dp802
g3
g55
sg14
g4
(g8
S'\x882\xaf~\xc7Kr?'
p803
tp804
Rp805
ssF355.1135638865978
(dp806
g3
g13
sg14
g4
(g8
S'\xb1{<>k\xc8\x89?'
p807
tp808
Rp809
ssF65.12406383915328
(dp810
g3
g102
sg14
g4
(g8
S'\x9a\xb1h:;\xd9\x0f@'
p811
tp812
Rp813
ssF278.6052644726241
(dp814
g3
g13
sg14
g4
(g8
S'\x96C\x8bl\xe7\xfbk@'
p815
tp816
Rp817
ssF80.56269335914787
(dp818
g3
g55
sg14
g4
(g8
S'\xe5\xf2\x1f\xd2o\x9f?@'
p819
tp820
Rp821
ssF396.32951057440175
(dp822
g3
g13
sg14
g4
(g8
S'\xe3\xb2\xc0\r\xe7\xd0\xb6?'
p823
tp824
Rp825
ssF293.4233834957568
(dp826
g3
g13
sg14
g4
(g8
S'~5\x07\x08\xe6\xe8\x01@'
p827
tp828
Rp829
ssF137.15889650745288
(dp830
g3
g55
sg14
g4
(g8
S'\xd3\xcd\x0fm\x11b\xa4?'
p831
tp832
Rp833
ssF92.84788102175017
(dp834
g3
g102
sg14
g4
(g8
S'2\xce:>\xb5U\xb4?'
p835
tp836
Rp837
ssF254.37874633240278
(dp838
g3
g13
sg14
g4
(g8
S'\x8d(\xed\r\xbep&@'
p839
tp840
Rp841
ssF49.26856051639357
(dp842
g3
g102
sg14
g4
(g8
S'\xcf\xf7S\xe3\xa5\xc3s@'
p843
tp844
Rp845
ssF89.9204829266033
(dp846
g3
g102
sg14
g4
(g8
S'\xb6\x08\xd6\x82(\xa9\xa9?'
p847
tp848
Rp849
ssF209.8066033223974
(dp850
g3
g21
sg14
g4
(g8
S'0\x02t\xa9[\x87t?'
p851
tp852
Rp853
ssF356.74492146648316
(dp854
g3
g13
sg14
g4
(g8
S'\x04\xa9\xb9\x81\xa75\x92?'
p855
tp856
Rp857
ssF217.38927619705916
(dp858
g3
g21
sg14
g4
(g8
S'\x88LT\xca\xc6\xde\xa6?'
p859
tp860
Rp861
ssF45.8640961759703
(dp862
g3
g102
sg14
g4
(g8
S'\x91~\xfb:p\x1e9@'
p863
tp864
Rp865
ssF82.43665819313073
(dp866
g3
g55
sg14
g4
(g8
S'\x81\x04\xc5\x8f1\x0fI@'
p867
tp868
Rp869
ssF45.564375369110735
(dp870
g3
g102
sg14
g4
(g8
S'\xe5\xf2\x1f\xd2o\x9f?@'
p871
tp872
Rp873
ssF133.5385394857148
(dp874
g3
g55
sg14
g4
(g8
S'\xc6m4\x80\xb7@\x82?'
p875
tp876
Rp877
ssF281.1266397123368
(dp878
g3
g13
sg14
g4
(g8
S'-\xb2\x9d\xef\xa7\xb7\x83@'
p879
tp880
Rp881
ssF354.4908984793849
(dp882
g3
g13
sg14
g4
(g8
S'{\x14\xaeG\xe1z\x84?'
p883
tp884
Rp885
ssF91.25400518705082
(dp886
g3
g102
sg14
g4
(g8
S"\x8a\xaa\x040\n'\xb0?"
p887
tp888
Rp889
ssF376.4473201517622
(dp890
g3
g13
sg14
g4
(g8
S'B\xb0\xaa^~\xa7\xe6?'
p891
tp892
Rp893
ssF150.93050831671553
(dp894
g3
g21
sg14
g4
(g8
S'\x15\x1d\xc9\xe5?\x8cO@'
p895
tp896
Rp897
ssF27.49676094748876
(dp898
g3
g32
sg14
g4
(g8
S';\x01M\x84\r/<@'
p899
tp900
Rp901
ssF97.43186806339233
(dp902
g3
g102
sg14
g4
(g8
S'U\x16\x85]\x14=\xd4?'
p903
tp904
Rp905
ssF50.239096888821194
(dp906
g3
g102
sg14
g4
(g8
S'!\xb0rh\x91\x1f\x86@'
p907
tp908
Rp909
ssF209.23589540257007
(dp910
g3
g21
sg14
g4
(g8
S'\x00\x00\x00\x00\x00\x00\xf0?'
p911
tp912
Rp913
ssF61.00168558960845
(dp914
g3
g32
sg14
g4
(g8
S',\xd5\x05\xbc\xcc0\xe4?'
p915
tp916
Rp917
ssF224.3855538330585
(dp918
g3
g21
sg14
g4
(g8
S'5\xc0\xbbK\x98\x1f\xb2?'
p919
tp920
Rp921
ssF94.53605597169383
(dp922
g3
g102
sg14
g4
(g8
S'\x9a\x99\x99\x99\x99\x99\xb9?'
p923
tp924
Rp925
ssF154.17233228443587
(dp926
g3
g21
sg14
g4
(g8
S'\xcb\xdb\x11N\x0b\xde\x11@'
p927
tp928
Rp929
ssF239.88974001063752
(dp930
g3
g21
sg14
g4
(g8
S'wH1@\xa2\t\xd2?'
p931
tp932
Rp933
ssF63.63538365243432
(dp934
g3
g32
sg14
g4
(g8
S'\x7f\x85\xcc\x95A\xb5\xd6?'
p935
tp936
Rp937
ssF90.1262055776896
(dp938
g3
g102
sg14
g4
(g8
S'\xbf\x81\xc9\x8d"k\xe9?'
p939
tp940
Rp941
ssF34.510612741583614
(dp942
g3
g32
sg14
g4
(g8
S'\x00\x00\x00\x00\x00\x00$@'
p943
tp944
Rp945
ssF56.899727184918255
(dp946
g3
g32
sg14
g4
(g8
S'\xfc\xa9\xf1\xd2MbP?'
p947
tp948
Rp949
ssF63.90290118958081
(dp950
g3
g32
sg14
g4
(g8
S'U\x16\x85]\x14=\xd4?'
p951
tp952
Rp953
ssF209.72161388426377
(dp954
g3
g21
sg14
g4
(g8
S'\x03*w\xfa\x9c\x16g?'
p955
tp956
Rp957
ssF94.84614674926756
(dp958
g3
g102
sg14
g4
(g8
S'r\xc5\xc5Q\xb9\t\xe0?'
p959
tp960
Rp961
ssF157.29330711482214
(dp962
g3
g21
sg14
g4
(g8
S'\xc5 \xb0rh\x9dq@'
p963
tp964
Rp965
ssF280.4933551901838
(dp966
g3
g13
sg14
g4
(g8
S'm\xe7\xfb\xa9\xf1\xea{@'
p967
tp968
Rp969
ssF353.5415732063428
(dp970
g3
g13
sg14
g4
(g8
S'\x84b\xd0\xae\xe7\x10m?'
p971
tp972
Rp973
ssF27.4112058707924
(dp974
g3
g32
sg14
g4
(g8
S'\xcf\xf7S\xe3\xa5\xc3s@'
p975
tp976
Rp977
ssF254.7884885393374
(dp978
g3
g13
sg14
g4
(g8
S'S\\U\xf6]Q\x1c@'
p979
tp980
Rp981
ssF63.20055522712995
(dp982
g3
g102
sg14
g4
(g8
S'\xcb\xdb\x11N\x0b\xde\x11@'
p983
tp984
Rp985
ssF358.5712397783751
(dp986
g3
g13
sg14
g4
(g8
S'1ce\x8f\xab\xec\x96?'
p987
tp988
Rp989
ssF27.608074974903964
(dp990
g3
g32
sg14
g4
(g8
S'\xc1\xca\xa1E\xb6\xe1x@'
p991
tp992
Rp993
ssF200.23294850841333
(dp994
g3
g21
sg14
g4
(g8
S'\xa3@\x9f\xc8\x93$\xf4?'
p995
tp996
Rp997
ssF87.11488737074434
(dp998
g3
g102
sg14
g4
(g8
S'\x00\x00\x00\x00\x00\x00\xf0?'
p999
tp1000
Rp1001
ssF44.23905382987183
(dp1002
g3
g32
sg14
g4
(g8
S'\x9a\xb1h:;\xd9\x0f@'
p1003
tp1004
Rp1005
ssF26.87190731139604
(dp1006
g3
g32
sg14
g4
(g8
S'\xd1"\xdb\xf9~:f@'
p1007
tp1008
Rp1009
ssF150.21463913449023
(dp1010
g3
g55
sg14
g4
(g8
S'\x94K\xe3\x17^I\xc4?'
p1011
tp1012
Rp1013
ssF157.1886996574711
(dp1014
g3
g21
sg14
g4
(g8
S'\x9a\xb1h:;\xd9\x0f@'
p1015
tp1016
Rp1017
ssF26.364766428585025
(dp1018
g3
g32
sg14
g4
(g8
S'\x00\x00\x00\x00\x00\x00Y@'
p1019
tp1020
Rp1021
ssF391.9693219986564
(dp1022
g3
g13
sg14
g4
(g8
S'\xe0e\x86\x8d\xb2\xfe\xe1?'
p1023
tp1024
Rp1025
ssF97.88335229246906
(dp1026
g3
g102
sg14
g4
(g8
S'>[\x07\x07{\x13\xd0?'
p1027
tp1028
Rp1029
ssF45.593104421989466
(dp1030
g3
g102
sg14
g4
(g8
S'\x00o\x81\x04\xc5\xe7C@'
p1031
tp1032
Rp1033
ssF104.6132414747132
(dp1034
g3
g55
sg14
g4
(g8
S'\xea[\xe6tYL\t@'
p1035
tp1036
Rp1037
ssF27.960065463450633
(dp1038
g3
g32
sg14
g4
(g8
S'-\xb2\x9d\xef\xa7\xb7\x83@'
p1039
tp1040
Rp1041
ssF85.55980569334017
(dp1042
g3
g55
sg14
g4
(g8
S'\xb0rh\x91\xed\x0c\\@'
p1043
tp1044
Rp1045
ssF279.66903375345834
(dp1046
g3
g13
sg14
g4
(g8
S'\xcf\xf7S\xe3\xa5\xc3s@'
p1047
tp1048
Rp1049
ssF89.30013250360206
(dp1050
g3
g55
sg14
g4
(g8
S'wJ\x07\xeb\xff<\x19@'
p1051
tp1052
Rp1053
ssF88.44112374976116
(dp1054
g3
g102
sg14
g4
(g8
S'\x997=\xde\x9a*\xa2?'
p1055
tp1056
Rp1057
ssF125.39632404281996
(dp1058
g3
g55
sg14
g4
(g8
S'`\xab\x04\x8b\xc3\x99\xf6?'
p1059
tp1060
Rp1061
ssF93.90203099200039
(dp1062
g3
g55
sg14
g4
(g8
S"\xce67\xa6'\x0c\x14@"
p1063
tp1064
Rp1065
ssF349.57296849674526
(dp1066
g3
g13
sg14
g4
(g8
S'\x00\x00\x00\x00\x00\x00\xf0?'
p1067
tp1068
Rp1069
ssF86.44895306193557
(dp1070
g3
g102
sg14
g4
(g8
S'\xael\xd5d|Np?'
p1071
tp1072
Rp1073
ssF56.9364741137199
(dp1074
g3
g32
sg14
g4
(g8
S'?+z\xf1\x8f\x08w?'
p1075
tp1076
Rp1077
ssF86.42490528036076
(dp1078
g3
g102
sg14
g4
(g8
S'\xd0#\xeb\x15\xbb"]?'
p1079
tp1080
Rp1081
ssF172.6403670925029
(dp1082
g3
g21
sg14
g4
(g8
S'\x0e2\xc9\xc8Y\x18\x04@'
p1083
tp1084
Rp1085
ssF50.538370207948994
(dp1086
g3
g102
sg14
g4
(g8
S'\x00\x00\x00\x00\x00@\x8f@'
p1087
tp1088
Rp1089
ssF260.1821020819456
(dp1090
g3
g13
sg14
g4
(g8
S"\xce67\xa6'\x0c\x14@"
p1091
tp1092
Rp1093
ssF70.90505346895584
(dp1094
g3
g102
sg14
g4
(g8
S'\x95\x9a=\xd0\n\x8c\x06@'
p1095
tp1096
Rp1097
ssF133.45262427155473
(dp1098
g3
g55
sg14
g4
(g8
S'mq\x8d\xcfd\xff|?'
p1099
tp1100
Rp1101
ssF64.08281855383484
(dp1102
g3
g32
sg14
g4
(g8
S'wH1@\xa2\t\xd2?'
p1103
tp1104
Rp1105
ssF151.61998292552926
(dp1106
g3
g21
sg14
g4
(g8
S'\xb4Y\xf5\xb9\xda\xb2Q@'
p1107
tp1108
Rp1109
ssF28.53906862657178
(dp1110
g3
g32
sg14
g4
(g8
S'\xde\x02\t\x8a\x1fc6@'
p1111
tp1112
Rp1113
ssF88.07744775305724
(dp1114
g3
g102
sg14
g4
(g8
S'w\xab\x9d\x17\xdd0\xa0?'
p1115
tp1116
Rp1117
ssF133.30864376487582
(dp1118
g3
g55
sg14
g4
(g8
S'\xdfB\r\x955\xa0T?'
p1119
tp1120
Rp1121
ssF89.35991905699359
(dp1122
g3
g102
sg14
g4
(g8
S'\x88LT\xca\xc6\xde\xa6?'
p1123
tp1124
Rp1125
ssF50.345906142359844
(dp1126
g3
g102
sg14
g4
(g8
S'\xb4\xc8v\xbe\x9f\xd2\x88@'
p1127
tp1128
Rp1129
ssF56.900433906438046
(dp1130
g3
g32
sg14
g4
(g8
S'\xdfB\r\x955\xa0T?'
p1131
tp1132
Rp1133
ssF93.85128307120549
(dp1134
g3
g102
sg14
g4
(g8
S'\xe0e\x86\x8d\xb2\xfe\xe1?'
p1135
tp1136
Rp1137
ssF281.7429015017442
(dp1138
g3
g13
sg14
g4
(g8
S'\x00\x00\x00\x00\x00@\x8f@'
p1139
tp1140
Rp1141
ssF151.1811435158923
(dp1142
g3
g55
sg14
g4
(g8
S'-\xd1Yf\x11\x8a\xc9?'
p1143
tp1144
Rp1145
ssF353.6791817154809
(dp1146
g3
g13
sg14
g4
(g8
S'0\x02t\xa9[\x87t?'
p1147
tp1148
Rp1149
ssF26.55171275723833
(dp1150
g3
g32
sg14
g4
(g8
S'\xfe\xd4x\xe9&y_@'
p1151
tp1152
Rp1153
ssF46.70451158674833
(dp1154
g3
g102
sg14
g4
(g8
S']m\xc5\xfe\xb2\xdbS@'
p1155
tp1156
Rp1157
ssF87.56493780128133
(dp1158
g3
g55
sg14
g4
(g8
S'\x96C\x8bl\xe7\xfbk@'
p1159
tp1160
Rp1161
ssF133.31142061039816
(dp1162
g3
g55
sg14
g4
(g8
S'\xff-\xb7j\x8d\xf7Y?'
p1163
tp1164
Rp1165
ssF280.72349947654305
(dp1166
g3
g13
sg14
g4
(g8
S'\xa2E\xb6\xf3\xfdR\x7f@'
p1167
tp1168
Rp1169
ssF155.88689665580816
(dp1170
g3
g21
sg14
g4
(g8
S'\xd1"\xdb\xf9~:f@'
p1171
tp1172
Rp1173
ssF26.980300277797724
(dp1174
g3
g32
sg14
g4
(g8
S'F\xb6\xf3\xfd\xd4\xf0h@'
p1175
tp1176
Rp1177
ssF50.14411915265289
(dp1178
g3
g32
sg14
g4
(g8
S'~5\x07\x08\xe6\xe8\x01@'
p1179
tp1180
Rp1181
ssF133.30987304228782
(dp1182
g3
g55
sg14
g4
(g8
S'M\xf3\x8eSt$W?'
p1183
tp1184
Rp1185
ssF181.7054421371339
(dp1186
g3
g21
sg14
g4
(g8
S'xE\xf0\xbf\x95\xec\xff?'
p1187
tp1188
Rp1189
ssF353.4466516781235
(dp1190
g3
g13
sg14
g4
(g8
S'\xb4\xd8\xdc\x87rX`?'
p1191
tp1192
Rp1193
ssF146.98425162070043
(dp1194
g3
g21
sg14
g4
(g8
S'K\xc8\x07=\x9b\xbdA@'
p1195
tp1196
Rp1197
ssF27.789932116011386
(dp1198
g3
g32
sg14
g4
(g8
S'\xa2E\xb6\xf3\xfdR\x7f@'
p1199
tp1200
Rp1201
ssF353.5130624342061
(dp1202
g3
g13
sg14
g4
(g8
S'p\x83\x90\xe2\xd2\xe7i?'
p1203
tp1204
Rp1205
ssF54.174225080847265
(dp1206
g3
g102
sg14
g4
(g8
S'.\xe2;1\xeb\xc5\x1f@'
p1207
tp1208
Rp1209
ssF151.29693743703697
(dp1210
g3
g55
sg14
g4
(g8
S'>[\x07\x07{\x13\xd0?'
p1211
tp1212
Rp1213
ssF54.455109135016244
(dp1214
g3
g32
sg14
g4
(g8
S'`\xab\x04\x8b\xc3\x99\xf6?'
p1215
tp1216
Rp1217
ssF49.735062190680914
(dp1218
g3
g102
sg14
g4
(g8
S'm\xe7\xfb\xa9\xf1\xea{@'
p1219
tp1220
Rp1221
ssF63.28099071300764
(dp1222
g3
g32
sg14
g4
(g8
S'H\xc1S\xc8\x95z\xd9?'
p1223
tp1224
Rp1225
ssF146.30334750208306
(dp1226
g3
g55
sg14
g4
(g8
S'r\xc5\xc5Q\xb9\t\xe0?'
p1227
tp1228
Rp1229
ssF398.65076361726705
(dp1230
g3
g13
sg14
g4
(g8
S'r\xc5\xc5Q\xb9\t\xe0?'
p1231
tp1232
Rp1233
ssF209.68707636494608
(dp1234
g3
g21
sg14
g4
(g8
S'\xfc\xa9\xf1\xd2MbP?'
p1235
tp1236
Rp1237
ssF27.510370977478853
(dp1238
g3
g32
sg14
g4
(g8
S'^\xbaI\x0c\x02-v@'
p1239
tp1240
Rp1241
ssF153.47333198245187
(dp1242
g3
g21
sg14
g4
(g8
S'\x00\x00\x00\x00\x00\x00Y@'
p1243
tp1244
Rp1245
ssF30.65789096624081
(dp1246
g3
g32
sg14
g4
(g8
S'\x18&S\x05\xa3\xb2/@'
p1247
tp1248
Rp1249
ssF413.5634871843789
(dp1250
g3
g13
sg14
g4
(g8
S'\x7f\x85\xcc\x95A\xb5\xd6?'
p1251
tp1252
Rp1253
ssF95.70410432464504
(dp1254
g3
g102
sg14
g4
(g8
S'\xab_\xe9|x\x96\xdc?'
p1255
tp1256
Rp1257
ssF60.23460529558127
(dp1258
g3
g32
sg14
g4
(g8
S'B\xb0\xaa^~\xa7\xe6?'
p1259
tp1260
Rp1261
ssF370.61268445852323
(dp1262
g3
g13
sg14
g4
(g8
S'\x88LT\xca\xc6\xde\xa6?'
p1263
tp1264
Rp1265
ssF217.59918901979816
(dp1266
g3
g21
sg14
g4
(g8
S'\xbf\x81\xc9\x8d"k\xe9?'
p1267
tp1268
Rp1269
ssF256.1362444133591
(dp1270
g3
g13
sg14
g4
(g8
S'9\xd6\xc5m4@,@'
p1271
tp1272
Rp1273
ssF307.63575639647377
(dp1274
g3
g13
sg14
g4
(g8
S'\x16\x18\xb2\xba\xd5s\xfc?'
p1275
tp1276
Rp1277
ssF253.7615429450888
(dp1278
g3
g13
sg14
g4
(g8
S'\xc1\x8b\xbe\x824\xd3!@'
p1279
tp1280
Rp1281
ssF26.659891920108375
(dp1282
g3
g32
sg14
g4
(g8
S'\xe3\xa5\x9b\xc4 \xa8a@'
p1283
tp1284
Rp1285
ssF213.52869417761963
(dp1286
g3
g21
sg14
g4
(g8
S'\x9c\xdf0\xd1 \x85\xec?'
p1287
tp1288
Rp1289
ssF97.54373567469817
(dp1290
g3
g102
sg14
g4
(g8
S'E\x13(b\x11\xc3\xc6?'
p1291
tp1292
Rp1293
ssF280.93409824544426
(dp1294
g3
g13
sg14
g4
(g8
S'}?5^\xba\x92\x81@'
p1295
tp1296
Rp1297
ssF88.32672535986592
(dp1298
g3
g55
sg14
g4
(g8
S'\xcf\xf7S\xe3\xa5\xc3s@'
p1299
tp1300
Rp1301
ssF47.41172319456211
(dp1302
g3
g102
sg14
g4
(g8
S'\xb0rh\x91\xed\x0c\\@'
p1303
tp1304
Rp1305
ssF276.1451592287115
(dp1306
g3
g13
sg14
g4
(g8
S'\xfe\xd4x\xe9&y_@'
p1307
tp1308
Rp1309
ssF269.769427188899
(dp1310
g3
g13
sg14
g4
(g8
S'\x81\x04\xc5\x8f1\x0fI@'
p1311
tp1312
Rp1313
ssF48.91089103855698
(dp1314
g3
g102
sg14
g4
(g8
S'5^\xbaI\x0cfo@'
p1315
tp1316
Rp1317
ssF240.28614235312233
(dp1318
g3
g21
sg14
g4
(g8
S'-\xd1Yf\x11\x8a\xc9?'
p1319
tp1320
Rp1321
ssF45.458864761368304
(dp1322
g3
g32
sg14
g4
(g8
S'\xdf\xa6?\xfb\x91b\x0c@'
p1323
tp1324
Rp1325
ssF133.31581800678669
(dp1326
g3
g55
sg14
g4
(g8
S'\xb4\xd8\xdc\x87rX`?'
p1327
tp1328
Rp1329
ssF48.467043655596754
(dp1330
g3
g102
sg14
g4
(g8
S'9\xd6\xc5m4@,@'
p1331
tp1332
Rp1333
ssF56.553701219283845
(dp1334
g3
g32
sg14
g4
(g8
S'\xa4SW>\xcb\xf3\xf1?'
p1335
tp1336
Rp1337
ssF145.25904424270385
(dp1338
g3
g21
sg14
g4
(g8
S';\x01M\x84\r/<@'
p1339
tp1340
Rp1341
ssF221.40064624100438
(dp1342
g3
g21
sg14
g4
(g8
S'B\xb0\xaa^~\xa7\xe6?'
p1343
tp1344
Rp1345
ssF275.5561770478922
(dp1346
g3
g13
sg14
g4
(g8
S'\xea[\xe6tYL\t@'
p1347
tp1348
Rp1349
ssF87.28464366384081
(dp1350
g3
g55
sg14
g4
(g8
S'S\\U\xf6]Q\x1c@'
p1351
tp1352
Rp1353
ssF210.07233935450782
(dp1354
g3
g21
sg14
g4
(g8
S'\xc6m4\x80\xb7@\x82?'
p1355
tp1356
Rp1357
ssF86.43088409176362
(dp1358
g3
g102
sg14
g4
(g8
S'\xe6\xef9\x0b\xd6\x93d?'
p1359
tp1360
Rp1361
ssF142.83900255993217
(dp1362
g3
g55
sg14
g4
(g8
S',\xd5\x05\xbc\xcc0\xe4?'
p1363
tp1364
Rp1365
ssF262.5954884579385
(dp1366
g3
g13
sg14
g4
(g8
S'\x91~\xfb:p\x1e9@'
p1367
tp1368
Rp1369
ssF281.3025209821478
(dp1370
g3
g13
sg14
g4
(g8
S'!\xb0rh\x91\x1f\x86@'
p1371
tp1372
Rp1373
ssF27.70095350983824
(dp1374
g3
g32
sg14
g4
(g8
S'm\xe7\xfb\xa9\xf1\xea{@'
p1375
tp1376
Rp1377
ssF95.33121577100151
(dp1378
g3
g102
sg14
g4
(g8
S'\x06\xb9\x8b0E\xb9\xbc?'
p1379
tp1380
Rp1381
ssF159.48658979874398
(dp1382
g3
g21
sg14
g4
(g8
S'\x00\x00\x00\x00\x00@\x8f@'
p1383
tp1384
Rp1385
ssF214.02656821355058
(dp1386
g3
g21
sg14
g4
(g8
S'w\xab\x9d\x17\xdd0\xa0?'
p1387
tp1388
Rp1389
ssF46.47284397386038
(dp1390
g3
g102
sg14
g4
(g8
S'\xb4Y\xf5\xb9\xda\xb2Q@'
p1391
tp1392
Rp1393
ssF148.45894193985995
(dp1394
g3
g55
sg14
g4
(g8
S'O\xcd\xe5\x06C\x1d\xc0?'
p1395
tp1396
Rp1397
ssF279.3436656087576
(dp1398
g3
g13
sg14
g4
(g8
S'\xc5 \xb0rh\x9dq@'
p1399
tp1400
Rp1401
ssF209.69203575312952
(dp1402
g3
g21
sg14
g4
(g8
S'M\xf3\x8eSt$W?'
p1403
tp1404
Rp1405
ssF257.82535586612727
(dp1406
g3
g13
sg14
g4
(g8
S'X\xff\xe70_~\x16@'
p1407
tp1408
Rp1409
ssF353.41654257023754
(dp1410
g3
g13
sg14
g4
(g8
S'\xc9V\x97S\x02bR?'
p1411
tp1412
Rp1413
ssF158.90938264545147
(dp1414
g3
g21
sg14
g4
(g8
S'-\xb2\x9d\xef\xa7\xb7\x83@'
p1415
tp1416
Rp1417
ssF26.247347501466045
(dp1418
g3
g32
sg14
g4
(g8
S'\x81\x04\xc5\x8f1\x0fI@'
p1419
tp1420
Rp1421
ssF253.90071662557537
(dp1422
g3
g13
sg14
g4
(g8
S'\x00\x00\x00\x00\x00\x00$@'
p1423
tp1424
Rp1425
ssF52.35159829144692
(dp1426
g3
g32
sg14
g4
(g8
S'\x16\x18\xb2\xba\xd5s\xfc?'
p1427
tp1428
Rp1429
ssF56.94623351316007
(dp1430
g3
g32
sg14
g4
(g8
S'\xe2\xd8iZ\x18\xd8y?'
p1431
tp1432
Rp1433
ssF190.9636451797017
(dp1434
g3
g21
sg14
g4
(g8
S'y\x1e\xdc\x9d\xb5[\xf9?'
p1435
tp1436
Rp1437
ssF83.79831122867304
(dp1438
g3
g102
sg14
g4
(g8
S'\xa3@\x9f\xc8\x93$\xf4?'
p1439
tp1440
Rp1441
ssF86.30256264004646
(dp1442
g3
g55
sg14
g4
(g8
S'\xe3\xa5\x9b\xc4 \xa8a@'
p1443
tp1444
Rp1445
ssF27.876513490171035
(dp1446
g3
g32
sg14
g4
(g8
S'}?5^\xba\x92\x81@'
p1447
tp1448
Rp1449
ssF128.24536521096823
(dp1450
g3
g55
sg14
g4
(g8
S'\xa3@\x9f\xc8\x93$\xf4?'
p1451
tp1452
Rp1453
ssF263.9166726842089
(dp1454
g3
g13
sg14
g4
(g8
S';\x01M\x84\r/<@'
p1455
tp1456
Rp1457
ssF48.310598683642745
(dp1458
g3
g102
sg14
g4
(g8
S'\xd1"\xdb\xf9~:f@'
p1459
tp1460
Rp1461
ssF56.9033265259129
(dp1462
g3
g32
sg14
g4
(g8
S'\xb4\xd8\xdc\x87rX`?'
p1463
tp1464
Rp1465
ssF133.3512212945693
(dp1466
g3
g55
sg14
g4
(g8
S'\xael\xd5d|Np?'
p1467
tp1468
Rp1469
ssF133.32277898535682
(dp1470
g3
g55
sg14
g4
(g8
S'\xe6\xef9\x0b\xd6\x93d?'
p1471
tp1472
Rp1473
ssF82.65693407209989
(dp1474
g3
g55
sg14
g4
(g8
S'\x00\x00\x00\x00\x00\x00$@'
p1475
tp1476
Rp1477
ssF26.35444917645438
(dp1478
g3
g32
sg14
g4
(g8
S'\xbdR\x96!\x8eUF@'
p1479
tp1480
Rp1481
ssF86.96975406870314
(dp1482
g3
g55
sg14
g4
(g8
S'\xd1"\xdb\xf9~:f@'
p1483
tp1484
Rp1485
ssF45.85574995860796
(dp1486
g3
g102
sg14
g4
(g8
S'\x81\x04\xc5\x8f1\x0fI@'
p1487
tp1488
Rp1489
ssF86.87900004129528
(dp1490
g3
g102
sg14
g4
(g8
S'\x10\xd6\xb5\xac\xb1:\x90?'
p1491
tp1492
Rp1493
ssF416.92241713746546
(dp1494
g3
g13
sg14
g4
(g8
S'\x94K\xe3\x17^I\xc4?'
p1495
tp1496
Rp1497
ssF58.18149487116486
(dp1498
g3
g32
sg14
g4
(g8
S'\x997=\xde\x9a*\xa2?'
p1499
tp1500
Rp1501
ssF146.0849273574664
(dp1502
g3
g55
sg14
g4
(g8
S'\x9a\x99\x99\x99\x99\x99\xb9?'
p1503
tp1504
Rp1505
ssF147.83016681583698
(dp1506
g3
g21
sg14
g4
(g8
S'\x00o\x81\x04\xc5\xe7C@'
p1507
tp1508
Rp1509
ssF88.6665177501894
(dp1510
g3
g102
sg14
g4
(g8
S'\x9c\xdf0\xd1 \x85\xec?'
p1511
tp1512
Rp1513
ssF81.46510217213071
(dp1514
g3
g55
sg14
g4
(g8
S'\x00o\x81\x04\xc5\xe7C@'
p1515
tp1516
Rp1517
ssF47.87407640282992
(dp1518
g3
g102
sg14
g4
(g8
S'\xe3\xa5\x9b\xc4 \xa8a@'
p1519
tp1520
Rp1521
ssF85.4893028197579
(dp1522
g3
g102
sg14
g4
(g8
S'\xa4SW>\xcb\xf3\xf1?'
p1523
tp1524
Rp1525
ssF211.18528724754555
(dp1526
g3
g21
sg14
g4
(g8
S'\x04\xa9\xb9\x81\xa75\x92?'
p1527
tp1528
Rp1529
ssF59.39992068608567
(dp1530
g3
g32
sg14
g4
(g8
S'\xbf\x81\xc9\x8d"k\xe9?'
p1531
tp1532
Rp1533
ssF97.1662141861114
(dp1534
g3
g102
sg14
g4
(g8
S'\x94K\xe3\x17^I\xc4?'
p1535
tp1536
Rp1537
ssF81.94895961646397
(dp1538
g3
g55
sg14
g4
(g8
S'\xbdR\x96!\x8eUF@'
p1539
tp1540
Rp1541
ssF148.65298558029144
(dp1542
g3
g21
sg14
g4
(g8
S'\xbdR\x96!\x8eUF@'
p1543
tp1544
Rp1545
ssF209.6978477229649
(dp1546
g3
g21
sg14
g4
(g8
S'\xd0#\xeb\x15\xbb"]?'
p1547
tp1548
Rp1549
ssF86.42268512541585
(dp1550
g3
g102
sg14
g4
(g8
S'M\xf3\x8eSt$W?'
p1551
tp1552
Rp1553
ssF86.43788293926869
(dp1554
g3
g102
sg14
g4
(g8
S'p\x83\x90\xe2\xd2\xe7i?'
p1555
tp1556
Rp1557
ssF149.01102023206494
(dp1558
g3
g21
sg14
g4
(g8
S'X\xff\xe70_~\x16@'
p1559
tp1560
Rp1561
ssF148.87985594203403
(dp1562
g3
g55
sg14
g4
(g8
S'H\xc1S\xc8\x95z\xd9?'
p1563
tp1564
Rp1565
ssF143.71204196258296
(dp1566
g3
g21
sg14
g4
(g8
S'.\xe2;1\xeb\xc5\x1f@'
p1567
tp1568
Rp1569
ssF279.9678430285288
(dp1570
g3
g13
sg14
g4
(g8
S'^\xbaI\x0c\x02-v@'
p1571
tp1572
Rp1573
ssF356.0806617616809
(dp1574
g3
g13
sg14
g4
(g8
S'\x10\xd6\xb5\xac\xb1:\x90?'
p1575
tp1576
Rp1577
ssF57.75666165248451
(dp1578
g3
g32
sg14
g4
(g8
S'%\xa7\x1b\xcd6\xdc\x9c?'
p1579
tp1580
Rp1581
ssF418.9812719461636
(dp1582
g3
g13
sg14
g4
(g8
S'wH1@\xa2\t\xd2?'
p1583
tp1584
Rp1585
ssF60.974450606698845
(dp1586
g3
g32
sg14
g4
(g8
S'2\xce:>\xb5U\xb4?'
p1587
tp1588
Rp1589
ssF353.6225111727462
(dp1590
g3
g13
sg14
g4
(g8
S'\x882\xaf~\xc7Kr?'
p1591
tp1592
Rp1593
ssF419.05366415900875
(dp1594
g3
g13
sg14
g4
(g8
S'E\x13(b\x11\xc3\xc6?'
p1595
tp1596
Rp1597
ssF86.42128364695324
(dp1598
g3
g102
sg14
g4
(g8
S'\xc9V\x97S\x02bR?'
p1599
tp1600
Rp1601
ssF62.308954256062485
(dp1602
g3
g32
sg14
g4
(g8
S'r\xc5\xc5Q\xb9\t\xe0?'
p1603
tp1604
Rp1605
ssF31.518063563911607
(dp1606
g3
g32
sg14
g4
(g8
S'9\xd6\xc5m4@,@'
p1607
tp1608
Rp1609
ssF26.226995635584192
(dp1610
g3
g32
sg14
g4
(g8
S']m\xc5\xfe\xb2\xdbS@'
p1611
tp1612
Rp1613
ssF46.66061565191625
(dp1614
g3
g32
sg14
g4
(g8
S'\xea[\xe6tYL\t@'
p1615
tp1616
Rp1617
ssF213.22434334719898
(dp1618
g3
g21
sg14
g4
(g8
S'%\xa7\x1b\xcd6\xdc\x9c?'
p1619
tp1620
Rp1621
ssF79.78111712946718
(dp1622
g3
g55
sg14
g4
(g8
S'\x18&S\x05\xa3\xb2/@'
p1623
tp1624
Rp1625
ssF147.33591601808095
(dp1626
g3
g55
sg14
g4
(g8
S'\x06\xb9\x8b0E\xb9\xbc?'
p1627
tp1628
Rp1629
ssF86.65354745686479
(dp1630
g3
g102
sg14
g4
(g8
S'8\xc7o\xc0\x9d\xfa\x86?'
p1631
tp1632
Rp1633
ssF86.56795215053177
(dp1634
g3
g102
sg14
g4
(g8
S'\xc6m4\x80\xb7@\x82?'
p1635
tp1636
Rp1637
ssF212.556558750931
(dp1638
g3
g21
sg14
g4
(g8
S'0\xc5\x0b\xd8\xc4\xb8\x99?'
p1639
tp1640
Rp1641
ssF155.46708240096706
(dp1642
g3
g21
sg14
g4
(g8
S'\xcf\xf7S\xe3\xa5\xcfc@'
p1643
tp1644
Rp1645
ssF144.67710466206213
(dp1646
g3
g55
sg14
g4
(g8
S'\xe0e\x86\x8d\xb2\xfe\xe1?'
p1647
tp1648
Rp1649
ssF89.95436658891091
(dp1650
g3
g55
sg14
g4
(g8
S'\x00\x00\x00\x00\x00@\x8f@'
p1651
tp1652
Rp1653
ssF60.453364635762476
(dp1654
g3
g32
sg14
g4
(g8
S'5\xc0\xbbK\x98\x1f\xb2?'
p1655
tp1656
Rp1657
ssF142.1318179002072
(dp1658
g3
g55
sg14
g4
(g8
S'5\xc0\xbbK\x98\x1f\xb2?'
p1659
tp1660
Rp1661
ssF218.85990721169895
(dp1662
g3
g21
sg14
g4
(g8
S'\xb6\x08\xd6\x82(\xa9\xa9?'
p1663
tp1664
Rp1665
ssF228.77171205263764
(dp1666
g3
g21
sg14
g4
(g8
S'\xe3\xb2\xc0\r\xe7\xd0\xb6?'
p1667
tp1668
Rp1669
ssF61.511150090493004
(dp1670
g3
g32
sg14
g4
(g8
S'\xe3\xb2\xc0\r\xe7\xd0\xb6?'
p1671
tp1672
Rp1673
ssF59.96465660986592
(dp1674
g3
g32
sg14
g4
(g8
S"\x8a\xaa\x040\n'\xb0?"
p1675
tp1676
Rp1677
ssF86.60597956717353
(dp1678
g3
g102
sg14
g4
(g8
S'{\x14\xaeG\xe1z\x84?'
p1679
tp1680
Rp1681
ssF300.3588566615335
(dp1682
g3
g13
sg14
g4
(g8
S'xE\xf0\xbf\x95\xec\xff?'
p1683
tp1684
Rp1685
ssF278.98971623986307
(dp1686
g3
g13
sg14
g4
(g8
S'5^\xbaI\x0cfo@'
p1687
tp1688
Rp1689
ssF354.26962412507
(dp1690
g3
g13
sg14
g4
(g8
S'\xc6m4\x80\xb7@\x82?'
p1691
tp1692
Rp1693
ssF391.2773148210221
(dp1694
g3
g13
sg14
g4
(g8
S'2\xce:>\xb5U\xb4?'
p1695
tp1696
Rp1697
ssF146.1228497586032
(dp1698
g3
g21
sg14
g4
(g8
S'\xe5\xf2\x1f\xd2o\x9f?@'
p1699
tp1700
Rp1701
ssF222.36009364088656
(dp1702
g3
g21
sg14
g4
(g8
S"\x8a\xaa\x040\n'\xb0?"
p1703
tp1704
Rp1705
ssF353.8398163343824
(dp1706
g3
g13
sg14
g4
(g8
S'\xe2\xd8iZ\x18\xd8y?'
p1707
tp1708
Rp1709
ssF122.48000422140214
(dp1710
g3
g55
sg14
g4
(g8
S'y\x1e\xdc\x9d\xb5[\xf9?'
p1711
tp1712
Rp1713
ssF86.43398384715394
(dp1714
g3
g102
sg14
g4
(g8
S'\x03*w\xfa\x9c\x16g?'
p1715
tp1716
Rp1717
ssF74.70446120554503
(dp1718
g3
g102
sg14
g4
(g8
S'~5\x07\x08\xe6\xe8\x01@'
p1719
tp1720
Rp1721
ssF151.02903966219182
(dp1722
g3
g55
sg14
g4
(g8
S'wH1@\xa2\t\xd2?'
p1723
tp1724
Rp1725
ssF96.66191979337374
(dp1726
g3
g102
sg14
g4
(g8
S'\x80\xef6o\x9c\x14\xc2?'
p1727
tp1728
Rp1729
ssF141.7288081868739
(dp1730
g3
g21
sg14
g4
(g8
S'\x18&S\x05\xa3\xb2/@'
p1731
tp1732
Rp1733
ssF26.185031652221774
(dp1734
g3
g32
sg14
g4
(g8
S'\xb4Y\xf5\xb9\xda\xb2Q@'
p1735
tp1736
Rp1737
ssF209.689991384836
(dp1738
g3
g21
sg14
g4
(g8
S'\xdfB\r\x955\xa0T?'
p1739
tp1740
Rp1741
ssF80.1616462453429
(dp1742
g3
g55
sg14
g4
(g8
S'9\xd6\xc5m4@,@'
p1743
tp1744
Rp1745
ssF353.43760067824326
(dp1746
g3
g13
sg14
g4
(g8
S'\xd0#\xeb\x15\xbb"]?'
p1747
tp1748
Rp1749
ssF353.4136760574221
(dp1750
g3
g13
sg14
g4
(g8
S'\xfc\xa9\xf1\xd2MbP?'
p1751
tp1752
Rp1753
ssF133.31889999326216
(dp1754
g3
g55
sg14
g4
(g8
S'\xa9D#\xe9\xe4Vb?'
p1755
tp1756
Rp1757
ssF355.54466122553987
(dp1758
g3
g13
sg14
g4
(g8
S'\x9a\xe5W\x18\xc7\xed\x8c?'
p1759
tp1760
Rp1761
ssF87.835170518457
(dp1762
g3
g55
sg14
g4
(g8
S'5^\xbaI\x0cfo@'
p1763
tp1764
Rp1765
ssF57.950834392552316
(dp1766
g3
g32
sg14
g4
(g8
S'w\xab\x9d\x17\xdd0\xa0?'
p1767
tp1768
Rp1769
ssF158.32729984326141
(dp1770
g3
g21
sg14
g4
(g8
S'm\xe7\xfb\xa9\xf1\xea{@'
p1771
tp1772
Rp1773
ssF61.695036199296716
(dp1774
g3
g32
sg14
g4
(g8
S'\xe0e\x86\x8d\xb2\xfe\xe1?'
p1775
tp1776
Rp1777
ssF141.29686852212885
(dp1778
g3
g21
sg14
g4
(g8
S'\xcb\x10\xc7\xba\xb8-)@'
p1779
tp1780
Rp1781
ssF59.41132960156439
(dp1782
g3
g102
sg14
g4
(g8
S'X\xff\xe70_~\x16@'
p1783
tp1784
Rp1785
ssF353.4304080292009
(dp1786
g3
g13
sg14
g4
(g8
S'\xff-\xb7j\x8d\xf7Y?'
p1787
tp1788
Rp1789
ssF59.11949017196568
(dp1790
g3
g32
sg14
g4
(g8
S'\xb6\x08\xd6\x82(\xa9\xa9?'
p1791
tp1792
Rp1793
ssF133.33379584006906
(dp1794
g3
g55
sg14
g4
(g8
S'p\x83\x90\xe2\xd2\xe7i?'
p1795
tp1796
Rp1797
ssF110.40621398519066
(dp1798
g3
g55
sg14
g4
(g8
S'\x0e2\xc9\xc8Y\x18\x04@'
p1799
tp1800
Rp1801
ssF59.519240055813654
(dp1802
g3
g32
sg14
g4
(g8
S'g\t\xd7H\xb7\xca\xac?'
p1803
tp1804
Rp1805
ssF142.8736525369592
(dp1806
g3
g21
sg14
g4
(g8
S'k+\xf6\x97\xdd\xf33@'
p1807
tp1808
Rp1809
ssF26.16881514904695
(dp1810
g3
g32
sg14
g4
(g8
S'\x15\x1d\xc9\xe5?\x8cO@'
p1811
tp1812
Rp1813
ssF210.2964445472773
(dp1814
g3
g21
sg14
g4
(g8
S'8\xc7o\xc0\x9d\xfa\x86?'
p1815
tp1816
Rp1817
ssF271.6951847636915
(dp1818
g3
g13
sg14
g4
(g8
S'\x15\x1d\xc9\xe5?\x8cO@'
p1819
tp1820
Rp1821
ssF86.42190418214395
(dp1822
g3
g102
sg14
g4
(g8
S'\xdfB\r\x955\xa0T?'
p1823
tp1824
Rp1825
ssF85.16134091563815
(dp1826
g3
g55
sg14
g4
(g8
S'\x00\x00\x00\x00\x00\x00Y@'
p1827
tp1828
Rp1829
ssF209.76080111347102
(dp1830
g3
g21
sg14
g4
(g8
S'\xael\xd5d|Np?'
p1831
tp1832
Rp1833
ssF84.31121732257732
(dp1834
g3
g55
sg14
g4
(g8
S']m\xc5\xfe\xb2\xdbS@'
p1835
tp1836
Rp1837
ssF143.60912979481495
(dp1838
g3
g21
sg14
g4
(g8
S'\xde\x02\t\x8a\x1fc6@'
p1839
tp1840
Rp1841
ssF144.4123527764509
(dp1842
g3
g21
sg14
g4
(g8
S'\x91~\xfb:p\x1e9@'
p1843
tp1844
Rp1845
ssF152.27343711563285
(dp1846
g3
g21
sg14
g4
(g8
S']m\xc5\xfe\xb2\xdbS@'
p1847
tp1848
Rp1849
ssF133.67327861617935
(dp1850
g3
g55
sg14
g4
(g8
S'8\xc7o\xc0\x9d\xfa\x86?'
p1851
tp1852
Rp1853
ssF150.80175828910987
(dp1854
g3
g55
sg14
g4
(g8
S'E\x13(b\x11\xc3\xc6?'
p1855
tp1856
Rp1857
ssF159.07293752948374
(dp1858
g3
g21
sg14
g4
(g8
S'!\xb0rh\x91\x1f\x86@'
p1859
tp1860
Rp1861
ssF89.29177900855464
(dp1862
g3
g55
sg14
g4
(g8
S'}?5^\xba\x92\x81@'
p1863
tp1864
Rp1865
ssF43.00254890131146
(dp1866
g3
g32
sg14
g4
(g8
S'\xcb\xdb\x11N\x0b\xde\x11@'
p1867
tp1868
Rp1869
ssF139.81024465503708
(dp1870
g3
g55
sg14
g4
(g8
S'g\t\xd7H\xb7\xca\xac?'
p1871
tp1872
Rp1873
ssF96.04574734124793
(dp1874
g3
g102
sg14
g4
(g8
S'O\xcd\xe5\x06C\x1d\xc0?'
p1875
tp1876
Rp1877
ssF209.92944669794687
(dp1878
g3
g21
sg14
g4
(g8
S'mq\x8d\xcfd\xff|?'
p1879
tp1880
Rp1881
ssF154.02099977725865
(dp1882
g3
g21
sg14
g4
(g8
S'\xb0rh\x91\xed\x0c\\@'
p1883
tp1884
Rp1885
ssF211.55347081672593
(dp1886
g3
g21
sg14
g4
(g8
S'$t\xe1Qtn\x94?'
p1887
tp1888
Rp1889
ssF86.7129537311098
(dp1890
g3
g102
sg14
g4
(g8
S'\xb1{<>k\xc8\x89?'
p1891
tp1892
Rp1893
ssF353.424691475004
(dp1894
g3
g13
sg14
g4
(g8
S'M\xf3\x8eSt$W?'
p1895
tp1896
Rp1897
ssF82.04590116572159
(dp1898
g3
g102
sg14
g4
(g8
S'`\xab\x04\x8b\xc3\x99\xf6?'
p1899
tp1900
Rp1901
ssF48.518446554494844
(dp1902
g3
g102
sg14
g4
(g8
S'F\xb6\xf3\xfd\xd4\xf0h@'
p1903
tp1904
Rp1905
ssF353.7503778086925
(dp1906
g3
g13
sg14
g4
(g8
S'?+z\xf1\x8f\x08w?'
p1907
tp1908
Rp1909
ssF145.13764025058902
(dp1910
g3
g21
sg14
g4
(g8
S'S\\U\xf6]Q\x1c@'
p1911
tp1912
Rp1913
ssF47.71178618124913
(dp1914
g3
g102
sg14
g4
(g8
S'\x18&S\x05\xa3\xb2/@'
p1915
tp1916
Rp1917
ssF80.7577244217164
(dp1918
g3
g55
sg14
g4
(g8
S'\xcb\x10\xc7\xba\xb8-)@'
p1919
tp1920
Rp1921
ssF286.8967445818974
(dp1922
g3
g13
sg14
g4
(g8
S'\x0e2\xc9\xc8Y\x18\x04@'
p1923
tp1924
Rp1925
ssF46.24932642967643
(dp1926
g3
g102
sg14
g4
(g8
S'\x15\x1d\xc9\xe5?\x8cO@'
p1927
tp1928
Rp1929
ssF89.72018852860356
(dp1930
g3
g55
sg14
g4
(g8
S'\xb4\xc8v\xbe\x9f\xd2\x88@'
p1931
tp1932
Rp1933
ssF47.08868626547103
(dp1934
g3
g102
sg14
g4
(g8
S'\x0eO\xaf\x94e\xc81@'
p1935
tp1936
Rp1937
ssF274.15333811056
(dp1938
g3
g13
sg14
g4
(g8
S'\xb2.n\xa3\x01HV@'
p1939
tp1940
Rp1941
ssF87.77133649150841
(dp1942
g3
g102
sg14
g4
(g8
S'%\xa7\x1b\xcd6\xdc\x9c?'
p1943
tp1944
Rp1945
ssF160.47236060202692
(dp1946
g3
g21
sg14
g4
(g8
S'\xdf\xa6?\xfb\x91b\x0c@'
p1947
tp1948
Rp1949
ssF214.97986868905255
(dp1950
g3
g21
sg14
g4
(g8
S'\x997=\xde\x9a*\xa2?'
p1951
tp1952
Rp1953
ssF275.5290743819292
(dp1954
g3
g13
sg14
g4
(g8
S'\xb0rh\x91\xed\x0c\\@'
p1955
tp1956
Rp1957
ssF45.54400932219229
(dp1958
g3
g102
sg14
g4
(g8
S'K\xc8\x07=\x9b\xbdA@'
p1959
tp1960
Rp1961
ssF147.7060667980754
(dp1962
g3
g55
sg14
g4
(g8
S'\xab_\xe9|x\x96\xdc?'
p1963
tp1964
Rp1965
ssF46.17108464913806
(dp1966
g3
g102
sg14
g4
(g8
S'\xde\x02\t\x8a\x1fc6@'
p1967
tp1968
Rp1969
ssF56.90155351776439
(dp1970
g3
g32
sg14
g4
(g8
S'\xff-\xb7j\x8d\xf7Y?'
p1971
tp1972
Rp1973
ssF359.8000766499536
(dp1974
g3
g13
sg14
g4
(g8
S'0\xc5\x0b\xd8\xc4\xb8\x99?'
p1975
tp1976
Rp1977
ssF256.0365270767584
(dp1978
g3
g13
sg14
g4
(g8
S'wJ\x07\xeb\xff<\x19@'
p1979
tp1980
Rp1981
ssF64.11106059863306
(dp1982
g3
g32
sg14
g4
(g8
S'-\xd1Yf\x11\x8a\xc9?'
p1983
tp1984
Rp1985
ssF155.01686005816836
(dp1986
g3
g21
sg14
g4
(g8
S'\xe3\xa5\x9b\xc4 \xa8a@'
p1987
tp1988
Rp1989
ssF57.1321239296126
(dp1990
g3
g32
sg14
g4
(g8
S'\x9a\xe5W\x18\xc7\xed\x8c?'
p1991
tp1992
Rp1993
ssF277.73562668302003
(dp1994
g3
g13
sg14
g4
(g8
S'\xd1"\xdb\xf9~:f@'
p1995
tp1996
Rp1997
ssF409.48745775438044
(dp1998
g3
g13
sg14
g4
(g8
S'H\xc1S\xc8\x95z\xd9?'
p1999
tp2000
Rp2001
ssF62.043735700932565
(dp2002
g3
g32
sg14
g4
(g8
S'\x9a\x99\x99\x99\x99\x99\xb9?'
p2003
tp2004
Rp2005
ssF157.5832680677589
(dp2006
g3
g21
sg14
g4
(g8
S'\xcf\xf7S\xe3\xa5\xc3s@'
p2007
tp2008
Rp2009
ssF88.86747033876773
(dp2010
g3
g102
sg14
g4
(g8
S'\xd3\xcd\x0fm\x11b\xa4?'
p2011
tp2012
Rp2013
ssF152.89106869951308
(dp2014
g3
g21
sg14
g4
(g8
S'\xb2.n\xa3\x01HV@'
p2015
tp2016
Rp2017
ssF331.4512875418683
(dp2018
g3
g13
sg14
g4
(g8
S'\xa3@\x9f\xc8\x93$\xf4?'
p2019
tp2020
Rp2021
ssF79.86155012609515
(dp2022
g3
g55
sg14
g4
(g8
S'\x91~\xfb:p\x1e9@'
p2023
tp2024
Rp2025
ssF209.7070481863419
(dp2026
g3
g21
sg14
g4
(g8
S'\xa9D#\xe9\xe4Vb?'
p2027
tp2028
Rp2029
ssF49.87281110627514
(dp2030
g3
g102
sg14
g4
(g8
S'\xa2E\xb6\xf3\xfdR\x7f@'
p2031
tp2032
Rp2033
ssF267.60159767226804
(dp2034
g3
g13
sg14
g4
(g8
S'\x00o\x81\x04\xc5\xe7C@'
p2035
tp2036
Rp2037
ssF278.1879018775139
(dp2038
g3
g13
sg14
g4
(g8
S'F\xb6\xf3\xfd\xd4\xf0h@'
p2039
tp2040
Rp2041
ssF86.42646187982037
(dp2042
g3
g102
sg14
g4
(g8
S'\xb4\xd8\xdc\x87rX`?'
p2043
tp2044
Rp2045
ssF63.39108751940211
(dp2046
g3
g32
sg14
g4
(g8
S'\x80\xef6o\x9c\x14\xc2?'
p2047
tp2048
Rp2049
ssF56.90092954553643
(dp2050
g3
g32
sg14
g4
(g8
S'M\xf3\x8eSt$W?'
p2051
tp2052
Rp2053
ssF135.43300295663076
(dp2054
g3
g55
sg14
g4
(g8
S'%\xa7\x1b\xcd6\xdc\x9c?'
p2055
tp2056
Rp2057
ssF281.4630523266602
(dp2058
g3
g13
sg14
g4
(g8
S'\xb4\xc8v\xbe\x9f\xd2\x88@'
p2059
tp2060
Rp2061
ssF56.993123287341646
(dp2062
g3
g32
sg14
g4
(g8
S'\xc6m4\x80\xb7@\x82?'
p2063
tp2064
Rp2065
ssF354.76774035425285
(dp2066
g3
g13
sg14
g4
(g8
S'8\xc7o\xc0\x9d\xfa\x86?'
p2067
tp2068
Rp2069
ssF204.78841128488824
(dp2070
g3
g21
sg14
g4
(g8
S'\xa4SW>\xcb\xf3\xf1?'
p2071
tp2072
Rp2073
ssF151.44072817131635
(dp2074
g3
g21
sg14
g4
(g8
S"\xce67\xa6'\x0c\x14@"
p2075
tp2076
Rp2077
ssF58.76411364095991
(dp2078
g3
g32
sg14
g4
(g8
S'\x88LT\xca\xc6\xde\xa6?'
p2079
tp2080
Rp2081
ssF56.906133152708854
(dp2082
g3
g32
sg14
g4
(g8
S'\xe6\xef9\x0b\xd6\x93d?'
p2083
tp2084
Rp2085
ssF133.39803146827654
(dp2086
g3
g55
sg14
g4
(g8
S'?+z\xf1\x8f\x08w?'
p2087
tp2088
Rp2089
ssF133.32765829514491
(dp2090
g3
g55
sg14
g4
(g8
S'\x03*w\xfa\x9c\x16g?'
p2091
tp2092
Rp2093
ssF57.26283820547529
(dp2094
g3
g32
sg14
g4
(g8
S'\x04\xa9\xb9\x81\xa75\x92?'
p2095
tp2096
Rp2097
ssF276.7167196645894
(dp2098
g3
g13
sg14
g4
(g8
S'\xe3\xa5\x9b\xc4 \xa8a@'
p2099
tp2100
Rp2101
ssF56.973854774593605
(dp2102
g3
g32
sg14
g4
(g8
S'\x08N\xc7\xad\x93D\x80?'
p2103
tp2104
Rp2105
ssF85.94007495893804
(dp2106
g3
g55
sg14
g4
(g8
S'\xfe\xd4x\xe9&y_@'
p2107
tp2108
Rp2109
ssF87.13355643563663
(dp2110
g3
g102
sg14
g4
(g8
S'$t\xe1Qtn\x94?'
p2111
tp2112
Rp2113
ssF88.54819890568416
(dp2114
g3
g55
sg14
g4
(g8
S'^\xbaI\x0c\x02-v@'
p2115
tp2116
Rp2117
ssF29.17676837140521
(dp2118
g3
g32
sg14
g4
(g8
S'k+\xf6\x97\xdd\xf33@'
p2119
tp2120
Rp2121
ssF76.56864581338439
(dp2122
g3
g102
sg14
g4
(g8
S'xE\xf0\xbf\x95\xec\xff?'
p2123
tp2124
Rp2125
ssF270.8019275671953
(dp2126
g3
g13
sg14
g4
(g8
S'\xdf\xa6?\xfb\x91b\x0c@'
p2127
tp2128
Rp2129
ssF133.49074666438852
(dp2130
g3
g55
sg14
g4
(g8
S'\x08N\xc7\xad\x93D\x80?'
p2131
tp2132
Rp2133
ssF88.9471557040332
(dp2134
g3
g55
sg14
g4
(g8
S'm\xe7\xfb\xa9\xf1\xea{@'
p2135
tp2136
Rp2137
ssF270.7621338265951
(dp2138
g3
g13
sg14
g4
(g8
S'.\xff!\xfd\xf6\x1dL@'
p2139
tp2140
Rp2141
ssF86.64591702683569
(dp2142
g3
g55
sg14
g4
(g8
S'\xcf\xf7S\xe3\xa5\xcfc@'
p2143
tp2144
Rp2145
ssF149.822901089324
(dp2146
g3
g55
sg14
g4
(g8
S'\x7f\x85\xcc\x95A\xb5\xd6?'
p2147
tp2148
Rp2149
ssF47.842932383304436
(dp2150
g3
g32
sg14
g4
(g8
S'\x95\x9a=\xd0\n\x8c\x06@'
p2151
tp2152
Rp2153
ssF210.17190071837373
(dp2154
g3
g21
sg14
g4
(g8
S'{\x14\xaeG\xe1z\x84?'
p2155
tp2156
Rp2157
ssF209.78109273354727
(dp2158
g3
g21
sg14
g4
(g8
S'\x882\xaf~\xc7Kr?'
p2159
tp2160
Rp2161
ssF136.4875751993496
(dp2162
g3
g55
sg14
g4
(g8
S'\x997=\xde\x9a*\xa2?'
p2163
tp2164
Rp2165
ssF280.24203730129443
(dp2166
g3
g13
sg14
g4
(g8
S'\xc1\xca\xa1E\xb6\xe1x@'
p2167
tp2168
Rp2169
ssF261.24980926421864
(dp2170
g3
g13
sg14
g4
(g8
S'\xde\x02\t\x8a\x1fc6@'
p2171
tp2172
Rp2173
ssF209.74465641093613
(dp2174
g3
g21
sg14
g4
(g8
S'\x84b\xd0\xae\xe7\x10m?'
p2175
tp2176
Rp2177
ssF86.42841982287355
(dp2178
g3
g102
sg14
g4
(g8
S'\xa9D#\xe9\xe4Vb?'
p2179
tp2180
Rp2181
ssF209.8386513616808
(dp2182
g3
g21
sg14
g4
(g8
S'?+z\xf1\x8f\x08w?'
p2183
tp2184
Rp2185
ssF86.42079065164624
(dp2186
g3
g102
sg14
g4
(g8
S'\xfc\xa9\xf1\xd2MbP?'
p2187
tp2188
Rp2189
ssF52.805045776515556
(dp2190
g3
g102
sg14
g4
(g8
S'\xc1\x8b\xbe\x824\xd3!@'
p2191
tp2192
Rp2193
ssF45.66617563387329
(dp2194
g3
g102
sg14
g4
(g8
S';\x01M\x84\r/<@'
p2195
tp2196
Rp2197
ssF89.44575483103092
(dp2198
g3
g55
sg14
g4
(g8
S'-\xb2\x9d\xef\xa7\xb7\x83@'
p2199
tp2200
Rp2201
ssF144.76132185672503
(dp2202
g3
g55
sg14
g4
(g8
S'\xe3\xb2\xc0\r\xe7\xd0\xb6?'
p2203
tp2204
Rp2205
ssF87.27589421080641
(dp2206
g3
g55
sg14
g4
(g8
S'F\xb6\xf3\xfd\xd4\xf0h@'
p2207
tp2208
Rp2209
ssF134.20761121907066
(dp2210
g3
g55
sg14
g4
(g8
S'\x04\xa9\xb9\x81\xa75\x92?'
p2211
tp2212
Rp2213
ssF220.51498605792955
(dp2214
g3
g21
sg14
g4
(g8
S'g\t\xd7H\xb7\xca\xac?'
p2215
tp2216
Rp2217
ssF401.3491864195973
(dp2218
g3
g13
sg14
g4
(g8
S'\x9a\x99\x99\x99\x99\x99\xb9?'
p2219
tp2220
Rp2221
ssF133.88333421544368
(dp2222
g3
g55
sg14
g4
(g8
S'\x9a\xe5W\x18\xc7\xed\x8c?'
p2223
tp2224
Rp2225
ssF361.28998459012746
(dp2226
g3
g13
sg14
g4
(g8
S'%\xa7\x1b\xcd6\xdc\x9c?'
p2227
tp2228
Rp2229
ssF56.95848483636435
(dp2230
g3
g32
sg14
g4
(g8
S'mq\x8d\xcfd\xff|?'
p2231
tp2232
Rp2233
ssF56.92870477872737
(dp2234
g3
g32
sg14
g4
(g8
S'0\x02t\xa9[\x87t?'
p2235
tp2236
Rp2237
ssF37.90552667267027
(dp2238
g3
g32
sg14
g4
(g8
S'S\\U\xf6]Q\x1c@'
p2239
tp2240
Rp2241
ssF406.0944338078583
(dp2242
g3
g13
sg14
g4
(g8
S'\x06\xb9\x8b0E\xb9\xbc?'
p2243
tp2244
Rp2245
ssF81.59218183069804
(dp2246
g3
g55
sg14
g4
(g8
S'\x8d(\xed\r\xbep&@'
p2247
tp2248
Rp2249
ssF86.49406829952429
(dp2250
g3
g102
sg14
g4
(g8
S'\xe2\xd8iZ\x18\xd8y?'
p2251
tp2252
Rp2253
ssF56.908100458888384
(dp2254
g3
g32
sg14
g4
(g8
S'\x03*w\xfa\x9c\x16g?'
p2255
tp2256
Rp2257
ssF55.80234772439159
(dp2258
g3
g102
sg14
g4
(g8
S'S\\U\xf6]Q\x1c@'
p2259
tp2260
Rp2261
ssF49.432688372568116
(dp2262
g3
g102
sg14
g4
(g8
S'^\xbaI\x0c\x02-v@'
p2263
tp2264
Rp2265
ssF158.0989549794412
(dp2266
g3
g21
sg14
g4
(g8
S'\xc1\xca\xa1E\xb6\xe1x@'
p2267
tp2268
Rp2269
ssF353.9521012133668
(dp2270
g3
g13
sg14
g4
(g8
S'mq\x8d\xcfd\xff|?'
p2271
tp2272
Rp2273
ssF141.4618334859471
(dp2274
g3
g21
sg14
g4
(g8
S'\x8d(\xed\r\xbep&@'
p2275
tp2276
Rp2277
ssF26.454106777014243
(dp2278
g3
g32
sg14
g4
(g8
S'\xb0rh\x91\xed\x0c\\@'
p2279
tp2280
Rp2281
ssF420.32466026821106
(dp2282
g3
g13
sg14
g4
(g8
S'>[\x07\x07{\x13\xd0?'
p2283
tp2284
Rp2285
ssF96.42142591536458
(dp2286
g3
g102
sg14
g4
(g8
S'H\xc1S\xc8\x95z\xd9?'
p2287
tp2288
Rp2289
ssF357.56465064314665
(dp2290
g3
g13
sg14
g4
(g8
S'$t\xe1Qtn\x94?'
p2291
tp2292
Rp2293
ssF151.34733320745184
(dp2294
g3
g55
sg14
g4
(g8
S'\xfd\xbb>s\xd6\xa7\xcc?'
p2295
tp2296
Rp2297
ssF135.91496037133484
(dp2298
g3
g55
sg14
g4
(g8
S'w\xab\x9d\x17\xdd0\xa0?'
p2299
tp2300
Rp2301
ssF57.59498156532168
(dp2302
g3
g32
sg14
g4
(g8
S'0\xc5\x0b\xd8\xc4\xb8\x99?'
p2303
tp2304
Rp2305
ssF281.6094622271093
(dp2306
g3
g13
sg14
g4
(g8
S'^\xbaI\x0c\x02\xda\x8b@'
p2307
tp2308
Rp2309
ssF101.80342760832208
(dp2310
g3
g55
sg14
g4
(g8
S'\xdf\xa6?\xfb\x91b\x0c@'
p2311
tp2312
Rp2313
ssF384.53683087503384
(dp2314
g3
g13
sg14
g4
(g8
S',\xd5\x05\xbc\xcc0\xe4?'
p2315
tp2316
Rp2317
ssF113.38130866692951
(dp2318
g3
g55
sg14
g4
(g8
S'~5\x07\x08\xe6\xe8\x01@'
p2319
tp2320
Rp2321
ssF134.0281820446608
(dp2322
g3
g55
sg14
g4
(g8
S'\x10\xd6\xb5\xac\xb1:\x90?'
p2323
tp2324
Rp2325
ssF86.478690747093
(dp2326
g3
g102
sg14
g4
(g8
S'?+z\xf1\x8f\x08w?'
p2327
tp2328
Rp2329
ssF51.26066528419128
(dp2330
g3
g32
sg14
g4
(g8
S'xE\xf0\xbf\x95\xec\xff?'
p2331
tp2332
Rp2333
ssF27.198942272326562
(dp2334
g3
g32
sg14
g4
(g8
S'5^\xbaI\x0cfo@'
p2335
tp2336
Rp2337
ssF136.19578708669894
(dp2338
g3
g55
sg14
g4
(g8
S'\x9c\xdf0\xd1 \x85\xec?'
p2339
tp2340
Rp2341
ssF159.22300903917215
(dp2342
g3
g21
sg14
g4
(g8
S'\xb4\xc8v\xbe\x9f\xd2\x88@'
p2343
tp2344
Rp2345
ssF45.70267178846719
(dp2346
g3
g102
sg14
g4
(g8
S'\xbdR\x96!\x8eUF@'
p2347
tp2348
Rp2349
ssF239.5803111458057
(dp2350
g3
g21
sg14
g4
(g8
S'E\x13(b\x11\xc3\xc6?'
p2351
tp2352
Rp2353
ssF36.739384531209275
(dp2354
g3
g32
sg14
g4
(g8
S'.\xe2;1\xeb\xc5\x1f@'
p2355
tp2356
Rp2357
ssF88.08944162974178
(dp2358
g3
g55
sg14
g4
(g8
S'\xc5 \xb0rh\x9dq@'
p2359
tp2360
Rp2361
ssF158.73131259457938
(dp2362
g3
g21
sg14
g4
(g8
S'}?5^\xba\x92\x81@'
p2363
tp2364
Rp2365
ssF277.246072714604
(dp2366
g3
g13
sg14
g4
(g8
S'\xcf\xf7S\xe3\xa5\xcfc@'
p2367
tp2368
Rp2369
ssF116.46297729964898
(dp2370
g3
g55
sg14
g4
(g8
S'xE\xf0\xbf\x95\xec\xff?'
p2371
tp2372
Rp2373
ssF56.904569165999206
(dp2374
g3
g32
sg14
g4
(g8
S'\xa9D#\xe9\xe4Vb?'
p2375
tp2376
Rp2377
ssF209.99285060312903
(dp2378
g3
g21
sg14
g4
(g8
S'\x08N\xc7\xad\x93D\x80?'
p2379
tp2380
Rp2381
ssF97.7264499216475
(dp2382
g3
g102
sg14
g4
(g8
S'wH1@\xa2\t\xd2?'
p2383
tp2384
Rp2385
ssF258.5681941222256
(dp2386
g3
g13
sg14
g4
(g8
S'\x0eO\xaf\x94e\xc81@'
p2387
tp2388
Rp2389
ssF353.4201506698645
(dp2390
g3
g13
sg14
g4
(g8
S'\xdfB\r\x955\xa0T?'
p2391
tp2392
Rp2393
ssF56.917600864067055
(dp2394
g3
g32
sg14
g4
(g8
S'\xael\xd5d|Np?'
p2395
tp2396
Rp2397
ssF72.8141447557633
(dp2398
g3
g102
sg14
g4
(g8
S'\x0e2\xc9\xc8Y\x18\x04@'
p2399
tp2400
Rp2401
ssF138.81707272990653
(dp2402
g3
g55
sg14
g4
(g8
S'\xb6\x08\xd6\x82(\xa9\xa9?'
p2403
tp2404
Rp2405
ssF156.2781324462148
(dp2406
g3
g21
sg14
g4
(g8
S'F\xb6\xf3\xfd\xd4\xf0h@'
p2407
tp2408
Rp2409
ssF57.01725656594588
(dp2410
g3
g32
sg14
g4
(g8
S'{\x14\xaeG\xe1z\x84?'
p2411
tp2412
Rp2413
ssF377.6419593234146
(dp2414
g3
g13
sg14
g4
(g8
S'g\t\xd7H\xb7\xca\xac?'
p2415
tp2416
Rp2417
ssF89.12579153024356
(dp2418
g3
g55
sg14
g4
(g8
S'\xa2E\xb6\xf3\xfdR\x7f@'
p2419
tp2420
Rp2421
ssF233.30553901603724
(dp2422
g3
g21
sg14
g4
(g8
S'\xab_\xe9|x\x96\xdc?'
p2423
tp2424
Rp2425
ssF57.574589955078444
(dp2426
g3
g102
sg14
g4
(g8
S'wJ\x07\xeb\xff<\x19@'
p2427
tp2428
Rp2429
ssF87.30605979045718
(dp2430
g3
g102
sg14
g4
(g8
S'1ce\x8f\xab\xec\x96?'
p2431
tp2432
Rp2433
ssF86.78698638650485
(dp2434
g3
g102
sg14
g4
(g8
S'\x9a\xe5W\x18\xc7\xed\x8c?'
p2435
tp2436
Rp2437
ssF26.187293788690152
(dp2438
g3
g32
sg14
g4
(g8
S'.\xff!\xfd\xf6\x1dL@'
p2439
tp2440
Rp2441
ssF57.4614866233932
(dp2442
g3
g32
sg14
g4
(g8
S'1ce\x8f\xab\xec\x96?'
p2443
tp2444
Rp2445
sstp2446
.