((lp0
F353.4136760574221
aF353.41654257023754
aF353.4201506698645
aF353.424691475004
aF353.4304080292009
aF353.43760067824326
aF353.4466516781235
aF353.4580364165154
aF353.47236539712793
aF353.49038976076554
aF353.5130624342061
aF353.5415732063428
aF353.5774357866932
aF353.6225111727462
aF353.6791817154809
aF353.7503778086925
aF353.8398163343824
aF353.9521012133668
aF354.0929835471804
aF354.26962412507
aF354.4908984793849
aF354.76774035425285
aF355.1135638865978
aF355.54466122553987
aF356.0806617616809
aF356.74492146648316
aF357.56465064314665
aF358.5712397783751
aF359.8000766499536
aF361.28998459012746
aF363.0816457644901
aF365.2132414003794
aF367.7162484608046
aF370.61268445852323
aF373.9165403480725
aF377.6419593234146
aF381.8038199970059
aF386.38257260345824
aF391.2773148210221
aF396.32951057440175
aF401.3491864195973
aF406.0944338078583
aF410.3458322955441
aF413.9860406510899
aF416.92241713746546
aF419.05366415900875
aF420.34836587609465
aF420.7782059519633
aF420.32466026821106
aF418.9812719461636
aF416.73269492369116
aF413.5634871843789
aF409.48745775438044
aF404.5062452540365
aF398.65076361726705
aF391.9693219986564
aF384.53683087503384
aF376.4473201517622
aF367.83008610107004
aF358.8272678876899
aF349.57296849674526
aF340.22773503796833
aF331.4512875418683
aF323.2354852483377
aF315.2816169201245
aF307.63575639647377
aF300.3588566615335
aF293.4233834957568
aF286.8967445818974
aF280.92312508322055
aF275.5561770478922
aF270.8019275671953
aF266.6580930172844
aF263.1211283821424
aF260.1821020819456
aF257.82535586612727
aF256.0365270767584
aF254.7884885393374
aF254.04019252990014
aF253.7615429450888
aF253.90071662557537
aF254.37874633240278
aF255.1392309727457
aF256.1362444133591
aF257.298963083452
aF258.5681941222256
aF259.898963081032
aF261.24980926421864
aF262.5954884579385
aF263.9166726842089
aF265.19760132260524
aF266.42789338253255
aF267.60159767226804
aF268.71602685391457
aF269.769427188899
aF270.7621338265951
aF271.6951847636915
aF272.5701489325246
aF273.3888209859153
aF274.15333811056
aF274.8659555369881
aF275.5290743819292
aF276.1451592287115
aF276.7167196645894
aF277.246072714604
aF277.73562668302003
aF278.1879018775139
aF278.6052644726241
aF278.98971623986307
aF279.3436656087576
aF279.66903375345834
aF279.9678430285288
aF280.24203730129443
aF280.4933551901838
aF280.72349947654305
aF280.93409824544426
aF281.1266397123368
aF281.3025209821478
aF281.4630523266602
aF281.6094622271093
aF281.7429015017442
aF209.68707636494608
aF209.6883669365711
aF209.689991384836
aF209.69203575312952
aF209.69460946077038
aF209.6978477229649
aF209.70192262793014
aF209.7070481863419
aF209.71349922875422
aF209.72161388426377
aF209.7318210991911
aF209.74465641093613
aF209.76080111347102
aF209.78109273354727
aF209.8066033223974
aF209.8386513616808
aF209.87890893029297
aF209.92944669794687
aF209.99285060312903
aF210.07233935450782
aF210.17190071837373
aF210.2964445472773
aF210.45199041033865
aF210.64584298632516
aF210.88679347825925
aF211.18528724754555
aF211.55347081672593
aF212.0053239937941
aF212.556558750931
aF213.22434334719898
aF214.02656821355058
aF214.97986868905255
aF216.0977326075391
aF217.38927619705916
aF218.85990721169895
aF220.51498605792955
aF222.36009364088656
aF224.3855538330585
aF226.54607032986377
aF228.77171205263764
aF230.97979718835506
aF233.0661532470788
aF235.13306264979394
aF236.97340121558307
aF238.47169587052989
aF239.5803111458057
aF240.28614235312233
aF240.57725931637478
aF240.44598971575047
aF239.88974001063752
aF238.90013386027303
aF237.4667920080647
aF235.59162983946817
aF233.30553901603724
aF230.8787363780335
aF228.07015635739444
aF224.90171113986602
aF221.40064624100438
aF217.59918901979816
aF213.52869417761963
aF209.23589540257007
aF204.78841128488824
aF200.23294850841333
aF195.6054126357996
aF190.9636451797017
aF186.31988618466912
aF181.7054421371339
aF177.12992040065137
aF172.6403670925029
aF168.3006479794196
aF164.1667382861181
aF160.47236060202692
aF157.1886996574711
aF154.17233228443587
aF151.44072817131635
aF149.01102023206494
aF146.9053790823303
aF145.13764025058902
aF143.71204196258296
aF142.63831193536188
aF141.90305105664348
aF141.4618334859471
aF141.29686852212885
aF141.40152376542025
aF141.7288081868739
aF142.23217921783248
aF142.8736525369592
aF143.60912979481495
aF144.4123527764509
aF145.25904424270385
aF146.1228497586032
aF146.98425162070043
aF147.83016681583698
aF148.65298558029144
aF149.44574595097495
aF150.20549085997408
aF150.93050831671553
aF151.61998292552926
aF152.27343711563285
aF152.89106869951308
aF153.47333198245187
aF154.02099977725865
aF154.53508427890102
aF155.01686005816836
aF155.46708240096706
aF155.88689665580816
aF156.2781324462148
aF156.64224670043512
aF156.97992702155457
aF157.29330711482214
aF157.5832680677589
aF157.85133015492352
aF158.0989549794412
aF158.32729984326141
aF158.53765910808374
aF158.73131259457938
aF158.90938264545147
aF159.07293752948374
aF159.22300903917215
aF159.36057608899878
aF159.48658979874398
aF133.306890964339
aF133.30766698476953
aF133.30864376487582
aF133.30987304228782
aF133.31142061039816
aF133.31336777341036
aF133.31581800678669
aF133.31889999326216
aF133.32277898535682
aF133.32765829514491
aF133.33379584006906
aF133.34151362601727
aF133.3512212945693
aF133.36342241808163
aF133.37876156901652
aF133.39803146827654
aF133.42223740645053
aF133.45262427155473
aF133.49074666438852
aF133.5385394857148
aF133.59839978389778
aF133.67327861617935
aF133.76679363667088
aF133.88333421544368
aF134.0281820446608
aF134.20761121907066
aF134.42891551896457
aF134.70048650140808
aF135.03175095947722
aF135.43300295663076
aF135.91496037133484
aF136.4875751993496
aF137.15889650745288
aF137.93433674864718
aF138.81707272990653
aF139.81024465503708
aF140.917118140632
aF142.1318179002072
aF143.42716688447666
aF144.76132185672503
aF146.0849273574664
aF147.33591601808095
aF148.45894193985995
aF149.4257388516815
aF150.21463913449023
aF150.80175828910987
aF151.1811435158923
aF151.34733320745184
aF151.29693743703697
aF151.02903966219182
aF150.53950908728407
aF149.822901089324
aF148.87985594203403
aF147.7060667980754
aF146.30334750208306
aF144.67710466206213
aF142.83900255993217
aF140.80286020056698
aF138.58408186759513
aF136.19578708669894
aF133.65833447217412
aF131.0026290892536
aF128.24536521096823
aF125.39632404281996
aF122.48000422140214
aF119.49693737297714
aF116.46297729964898
aF113.38130866692951
aF110.40621398519066
aF107.48553858423826
aF104.6132414747132
aF101.80342760832208
aF99.06955861743889
aF96.42884757035466
aF93.90203099200039
aF91.51536344034402
aF89.30013250360206
aF87.28464366384081
aF85.49374839672416
aF83.95087540919329
aF82.65693407209989
aF81.59218183069804
aF80.7577244217164
aF80.1616462453429
aF79.78111712946718
aF79.58729062016579
aF79.55408134945777
aF79.64957750251982
aF79.86155012609515
aF80.17538771544511
aF80.56269335914787
aF80.99886660929704
aF81.46510217213071
aF81.94895961646397
aF82.43665819313073
aF82.92101623193714
aF83.39706385529635
aF83.86142125027905
aF84.31121732257732
aF84.74491581713009
aF85.16134091563815
aF85.55980569334017
aF85.94007495893804
aF86.30256264004646
aF86.64591702683569
aF86.96975406870314
aF87.27589421080641
aF87.56493780128133
aF87.835170518457
aF88.08944162974178
aF88.32672535986592
aF88.54819890568416
aF88.75491566663992
aF88.9471557040332
aF89.12579153024356
aF89.29177900855464
aF89.44575483103092
aF89.5883349607233
aF89.72018852860356
aF89.84195819446313
aF89.95436658891091
aF86.42079065164624
aF86.42128364695324
aF86.42190418214395
aF86.42268512541585
aF86.42366827436433
aF86.42490528036076
aF86.42646187982037
aF86.42841982287355
aF86.43088409176362
aF86.43398384715394
aF86.43788293926869
aF86.4427859320561
aF86.44895306193557
aF86.45670423622715
aF86.46644893432745
aF86.478690747093
aF86.49406829952429
aF86.51337241634931
aF86.53759065772415
aF86.56795215053177
aF86.60597956717353
aF86.65354745686479
aF86.7129537311098
aF86.78698638650485
aF86.87900004129528
aF86.99297940038674
aF87.13355643563663
aF87.30605979045718
aF87.5164747954545
aF87.77133649150841
aF88.07744775305724
aF88.44112374976116
aF88.86747033876773
aF89.35991905699359
aF89.9204829266033
aF90.55115352595391
aF91.25400518705082
aF92.02531955971101
aF92.84788102175017
aF93.6951992034322
aF94.53605597169383
aF95.33121577100151
aF96.04574734124793
aF96.66191979337374
aF97.1662141861114
aF97.54373567469817
aF97.79098160792591
aF97.9047919471584
aF97.88335229246906
aF97.7264499216475
aF97.43186806339233
aF96.99657824357651
aF96.42142591536458
aF95.70410432464504
aF94.84614674926756
aF93.85128307120549
aF92.72707640573236
aF91.48224453900573
aF90.1262055776896
aF88.6665177501894
aF87.11488737074434
aF85.4893028197579
aF83.79831122867304
aF82.04590116572159
aF80.24554559796245
aF78.39798417764176
aF76.56864581338439
aF74.70446120554503
aF72.8141447557633
aF70.90505346895584
aF68.98294850541254
aF67.05392647804827
aF65.12406383915328
aF63.20055522712995
aF61.29219419342754
aF59.41132960156439
aF57.574589955078444
aF55.80234772439159
aF54.174225080847265
aF52.805045776515556
aF51.54414594123451
aF50.391870874564795
aF49.36138686274735
aF48.467043655596754
aF47.71178618124913
aF47.08868626547103
aF46.58097247457293
aF46.17108464913806
aF45.8640961759703
aF45.66617563387329
aF45.564375369110735
aF45.54400932219229
aF45.593104421989466
aF45.70267178846719
aF45.85574995860796
aF46.04106227881963
aF46.24932642967643
aF46.47284397386038
aF46.70451158674833
aF46.940237928842365
aF47.1767351723898
aF47.41172319456211
aF47.64398899697531
aF47.87407640282992
aF48.09710987622523
aF48.310598683642745
aF48.518446554494844
aF48.72080763763317
aF48.91089103855698
aF49.09512748570806
aF49.26856051639357
aF49.432688372568116
aF49.588565951008896
aF49.735062190680914
aF49.87281110627514
aF50.002704621660826
aF50.124786654718115
aF50.239096888821194
aF50.345906142359844
aF50.445471818617726
aF50.538370207948994
aF56.899727184918255
aF56.900040073006004
aF56.900433906438046
aF56.90092954553643
aF56.90155351776439
aF56.902338604394096
aF56.9033265259129
aF56.904569165999206
aF56.906133152708854
aF56.908100458888384
aF56.91057507296944
aF56.9136868218625
aF56.917600864067055
aF56.92252022625824
aF56.92870477872737
aF56.9364741137199
aF56.94623351316007
aF56.95848483636435
aF56.973854774593605
aF56.993123287341646
aF57.01725656594588
aF57.047444015585995
aF57.08514356569922
aF57.1321239296126
aF57.19051305194175
aF57.26283820547529
aF57.352036645935115
aF57.4614866233932
aF57.59498156532168
aF57.75666165248451
aF57.950834392552316
aF58.18149487116486
aF58.4518679365329
aF58.76411364095991
aF59.11949017196568
aF59.519240055813654
aF59.96465660986592
aF60.453364635762476
aF60.974450606698845
aF61.511150090493004
aF62.043735700932565
aF62.54744235557654
aF63.00026214534497
aF63.39108751940211
aF63.71148758413335
aF63.95217257167973
aF64.11106059863306
aF64.18629353867459
aF64.17687192592443
aF64.08281855383484
aF63.90290118958081
aF63.63538365243432
aF63.28099071300764
aF62.83845832068507
aF62.308954256062485
aF61.695036199296716
aF61.00168558960845
aF60.23460529558127
aF59.39992068608567
aF58.50253735361644
aF57.54996217949467
aF56.553701219283845
aF55.51922861097527
aF54.455109135016244
aF53.41801838034028
aF52.35159829144692
aF51.26066528419128
aF50.14411915265289
aF49.0043749876218
aF47.842932383304436
aF46.66061565191625
aF45.458864761368304
aF44.23905382987183
aF43.00254890131146
aF41.75032604288633
aF40.48293529245665
aF39.20027795117804
aF37.90552667267027
aF36.739384531209275
aF35.606498681148395
aF34.510612741583614
aF33.45671878024991
aF32.4551058900931
aF31.518063563911607
aF30.65789096624081
aF29.87990957576
aF29.17676837140521
aF28.53906862657178
aF27.975260465439725
aF27.49676094748876
aF27.100326815298427
aF26.77924598923715
aF26.5304090984281
aF26.35444917645438
aF26.247347501466045
aF26.187293788690152
aF26.16881514904695
aF26.185031652221774
aF26.226995635584192
aF26.288742789678686
aF26.364766428585025
aF26.454106777014243
aF26.55171275723833
aF26.659891920108375
aF26.76839639346307
aF26.87190731139604
aF26.980300277797724
aF27.09470126315756
aF27.198942272326562
aF27.30850170219438
aF27.4112058707924
aF27.510370977478853
aF27.608074974903964
aF27.70095350983824
aF27.789932116011386
aF27.876513490171035
aF27.960065463450633
aF28.0398830520891
aF28.11582476571168
aF28.187704374219344
aF28.256180726953836
acnumpy.core.multiarray
_reconstruct
p1
(cnumpy
ndarray
p2
(I0
tp3
S'b'
p4
tp5
Rp6
(I1
(I121
tp7
cnumpy
dtype
p8
(S'f8'
p9
I0
I1
tp10
Rp11
(I3
S'<'
p12
NNNI-1
I-1
I0
tp13
bI00
S'\xfc\xa9\xf1\xd2MbP?\xc9V\x97S\x02bR?\xdfB\r\x955\xa0T?M\xf3\x8eSt$W?\xff-\xb7j\x8d\xf7Y?\xd0#\xeb\x15\xbb"]?\xb4\xd8\xdc\x87rX`?\xa9D#\xe9\xe4Vb?\xe6\xef9\x0b\xd6\x93d?\x03*w\xfa\x9c\x16g?p\x83\x90\xe2\xd2\xe7i?\x84b\xd0\xae\xe7\x10m?\xael\xd5d|Np?\x882\xaf~\xc7Kr?0\x02t\xa9[\x87t??+z\xf1\x8f\x08w?\xe2\xd8iZ\x18\xd8y?mq\x8d\xcfd\xff|?\x08N\xc7\xad\x93D\x80?\xc6m4\x80\xb7@\x82?{\x14\xaeG\xe1z\x84?8\xc7o\xc0\x9d\xfa\x86?\xb1{<>k\xc8\x89?\x9a\xe5W\x18\xc7\xed\x8c?\x10\xd6\xb5\xac\xb1:\x90?\x04\xa9\xb9\x81\xa75\x92?$t\xe1Qtn\x94?1ce\x8f\xab\xec\x96?0\xc5\x0b\xd8\xc4\xb8\x99?%\xa7\x1b\xcd6\xdc\x9c?w\xab\x9d\x17\xdd0\xa0?\x997=\xde\x9a*\xa2?\xd3\xcd\x0fm\x11b\xa4?\x88LT\xca\xc6\xde\xa6?\xb6\x08\xd6\x82(\xa9\xa9?g\t\xd7H\xb7\xca\xac?\x8a\xaa\x040\n\'\xb0?5\xc0\xbbK\x98\x1f\xb2?2\xce:>\xb5U\xb4?\xe3\xb2\xc0\r\xe7\xd0\xb6?\x9a\x99\x99\x99\x99\x99\xb9?\x06\xb9\x8b0E\xb9\xbc?O\xcd\xe5\x06C\x1d\xc0?\x80\xef6o\x9c\x14\xc2?\x94K\xe3\x17^I\xc4?E\x13(b\x11\xc3\xc6?-\xd1Yf\x11\x8a\xc9?\xfd\xbb>s\xd6\xa7\xcc?>[\x07\x07{\x13\xd0?wH1@\xa2\t\xd2?U\x16\x85]\x14=\xd4?\x7f\x85\xcc\x95A\xb5\xd6?H\xc1S\xc8\x95z\xd9?\xab_\xe9|x\x96\xdc?r\xc5\xc5Q\xb9\t\xe0?\xe0e\x86\x8d\xb2\xfe\xe1?,\xd5\x05\xbc\xcc0\xe4?B\xb0\xaa^~\xa7\xe6?\xbf\x81\xc9\x8d"k\xe9?\x9c\xdf0\xd1 \x85\xec?\x00\x00\x00\x00\x00\x00\xf0?\xa4SW>\xcb\xf3\xf1?\xa3@\x9f\xc8\x93$\xf4?`\xab\x04\x8b\xc3\x99\xf6?y\x1e\xdc\x9d\xb5[\xf9?\x16\x18\xb2\xba\xd5s\xfc?xE\xf0\xbf\x95\xec\xff?~5\x07\x08\xe6\xe8\x01@\x0e2\xc9\xc8Y\x18\x04@\x95\x9a=\xd0\n\x8c\x06@\xea[\xe6tYL\t@\xdf\xa6?\xfb\x91b\x0c@\x9a\xb1h:;\xd9\x0f@\xcb\xdb\x11N\x0b\xde\x11@\xce67\xa6\'\x0c\x14@X\xff\xe70_~\x16@wJ\x07\xeb\xff<\x19@S\\U\xf6]Q\x1c@.\xe2;1\xeb\xc5\x1f@\xc1\x8b\xbe\x824\xd3!@\x00\x00\x00\x00\x00\x00$@\x8d(\xed\r\xbep&@\xcb\x10\xc7\xba\xb8-)@9\xd6\xc5m4@,@\x18&S\x05\xa3\xb2/@\x0eO\xaf\x94e\xc81@k+\xf6\x97\xdd\xf33@\xde\x02\t\x8a\x1fc6@\x91~\xfb:p\x1e9@;\x01M\x84\r/<@\xe5\xf2\x1f\xd2o\x9f?@K\xc8\x07=\x9b\xbdA@\x00o\x81\x04\xc5\xe7C@\xbdR\x96!\x8eUF@\x81\x04\xc5\x8f1\x0fI@.\xff!\xfd\xf6\x1dL@\x15\x1d\xc9\xe5?\x8cO@\xb4Y\xf5\xb9\xda\xb2Q@]m\xc5\xfe\xb2\xdbS@\xb2.n\xa3\x01HV@\x00\x00\x00\x00\x00\x00Y@\xb0rh\x91\xed\x0c\\@\xfe\xd4x\xe9&y_@\xe3\xa5\x9b\xc4 \xa8a@\xcf\xf7S\xe3\xa5\xcfc@\xd1"\xdb\xf9~:f@F\xb6\xf3\xfd\xd4\xf0h@\x96C\x8bl\xe7\xfbk@5^\xbaI\x0cfo@\xc5 \xb0rh\x9dq@\xcf\xf7S\xe3\xa5\xc3s@^\xbaI\x0c\x02-v@\xc1\xca\xa1E\xb6\xe1x@m\xe7\xfb\xa9\xf1\xea{@\xa2E\xb6\xf3\xfdR\x7f@}?5^\xba\x92\x81@-\xb2\x9d\xef\xa7\xb7\x83@!\xb0rh\x91\x1f\x86@\xb4\xc8v\xbe\x9f\xd2\x88@^\xbaI\x0c\x02\xda\x8b@\x00\x00\x00\x00\x00@\x8f@'
p14
tp15
bg1
(g2
(I0
tp16
g4
tp17
Rp18
(I1
(I5
tp19
g11
I00
S"\x00\x00\x00\x00\x00\x00\xf0?S[\xda:XL\t@\x00\x00\x00\x00\x00\x00$@'\xf2\x90In\x9f?@\x00\x00\x00\x00\x00\x00Y@"
p20
tp21
b(dp22
F381.8038199970059
(dp23
S'radius'
p24
cnumpy.core.multiarray
scalar
p25
(g11
S'\x00\x00\x00\x00\x00\x00\xf0?'
p26
tp27
Rp28
sS'grainsize'
p29
g25
(g11
S"\x8a\xaa\x040\n'\xb0?"
p30
tp31
Rp32
ssF186.31988618466912
(dp33
g24
g25
(g11
S'S[\xda:XL\t@'
p34
tp35
Rp36
sg29
g25
(g11
S'\x16\x18\xb2\xba\xd5s\xfc?'
p37
tp38
Rp39
ssF142.23217921783248
(dp40
g24
g36
sg29
g25
(g11
S'\x0eO\xaf\x94e\xc81@'
p41
tp42
Rp43
ssF56.900040073006004
(dp44
g24
g25
(g11
S'\x00\x00\x00\x00\x00\x00Y@'
p45
tp46
Rp47
sg29
g25
(g11
S'\xc9V\x97S\x02bR?'
p48
tp49
Rp50
ssF27.975260465439725
(dp51
g24
g47
sg29
g25
(g11
S'\x91~\xfb:p\x1e9@'
p52
tp53
Rp54
ssF386.38257260345824
(dp55
g24
g28
sg29
g25
(g11
S'5\xc0\xbbK\x98\x1f\xb2?'
p56
tp57
Rp58
ssF63.71148758413335
(dp59
g24
g47
sg29
g25
(g11
S'\x94K\xe3\x17^I\xc4?'
p60
tp61
Rp62
ssF410.3458322955441
(dp63
g24
g28
sg29
g25
(g11
S'O\xcd\xe5\x06C\x1d\xc0?'
p64
tp65
Rp66
ssF140.917118140632
(dp67
g24
g25
(g11
S'\x00\x00\x00\x00\x00\x00$@'
p68
tp69
Rp70
sg29
g25
(g11
S"\x8a\xaa\x040\n'\xb0?"
p71
tp72
Rp73
ssF367.83008610107004
(dp74
g24
g28
sg29
g25
(g11
S'\xbf\x81\xc9\x8d"k\xe9?'
p75
tp76
Rp77
ssF131.0026290892536
(dp78
g24
g70
sg29
g25
(g11
S'\xa4SW>\xcb\xf3\xf1?'
p79
tp80
Rp81
ssF88.75491566663992
(dp82
g24
g70
sg29
g25
(g11
S'\xc1\xca\xa1E\xb6\xe1x@'
p83
tp84
Rp85
ssF240.44598971575047
(dp86
g24
g36
sg29
g25
(g11
S'>[\x07\x07{\x13\xd0?'
p87
tp88
Rp89
ssF235.13306264979394
(dp90
g24
g36
sg29
g25
(g11
S'O\xcd\xe5\x06C\x1d\xc0?'
p91
tp92
Rp93
ssF133.306890964339
(dp94
g24
g70
sg29
g25
(g11
S'\xfc\xa9\xf1\xd2MbP?'
p95
tp96
Rp97
ssF149.44574595097495
(dp98
g24
g36
sg29
g25
(g11
S'\x81\x04\xc5\x8f1\x0fI@'
p99
tp100
Rp101
ssF134.42891551896457
(dp102
g24
g70
sg29
g25
(g11
S'$t\xe1Qtn\x94?'
p103
tp104
Rp105
ssF28.256180726953836
(dp106
g24
g47
sg29
g25
(g11
S'\x00\x00\x00\x00\x00@\x8f@'
p107
tp108
Rp109
ssF156.97992702155457
(dp110
g24
g36
sg29
g25
(g11
S'5^\xbaI\x0cfo@'
p111
tp112
Rp113
ssF78.39798417764176
(dp114
g24
g25
(g11
S"'\xf2\x90In\x9f?@"
p115
tp116
Rp117
sg29
g25
(g11
S'\x16\x18\xb2\xba\xd5s\xfc?'
p118
tp119
Rp120
ssF133.34151362601727
(dp121
g24
g70
sg29
g25
(g11
S'\x84b\xd0\xae\xe7\x10m?'
p122
tp123
Rp124
ssF209.7318210991911
(dp125
g24
g36
sg29
g25
(g11
S'p\x83\x90\xe2\xd2\xe7i?'
p126
tp127
Rp128
ssF404.5062452540365
(dp129
g24
g28
sg29
g25
(g11
S'\xab_\xe9|x\x96\xdc?'
p130
tp131
Rp132
ssF137.93433674864718
(dp133
g24
g70
sg29
g25
(g11
S'\x88LT\xca\xc6\xde\xa6?'
p134
tp135
Rp136
ssF58.4518679365329
(dp137
g24
g47
sg29
g25
(g11
S'\xd3\xcd\x0fm\x11b\xa4?'
p138
tp139
Rp140
ssF63.00026214534497
(dp141
g24
g47
sg29
g25
(g11
S'O\xcd\xe5\x06C\x1d\xc0?'
p142
tp143
Rp144
ssF133.59839978389778
(dp145
g24
g70
sg29
g25
(g11
S'{\x14\xaeG\xe1z\x84?'
p146
tp147
Rp148
ssF86.51337241634931
(dp149
g24
g117
sg29
g25
(g11
S'mq\x8d\xcfd\xff|?'
p150
tp151
Rp152
ssF91.48224453900573
(dp153
g24
g117
sg29
g25
(g11
S'B\xb0\xaa^~\xa7\xe6?'
p154
tp155
Rp156
ssF157.85133015492352
(dp157
g24
g36
sg29
g25
(g11
S'^\xbaI\x0c\x02-v@'
p158
tp159
Rp160
ssF90.55115352595391
(dp161
g24
g117
sg29
g25
(g11
S'g\t\xd7H\xb7\xca\xac?'
p162
tp163
Rp164
ssF62.83845832068507
(dp165
g24
g47
sg29
g25
(g11
S'\xab_\xe9|x\x96\xdc?'
p166
tp167
Rp168
ssF236.97340121558307
(dp169
g24
g36
sg29
g25
(g11
S'\x80\xef6o\x9c\x14\xc2?'
p170
tp171
Rp172
ssF135.03175095947722
(dp173
g24
g70
sg29
g25
(g11
S'0\xc5\x0b\xd8\xc4\xb8\x99?'
p174
tp175
Rp176
ssF230.8787363780335
(dp177
g24
g36
sg29
g25
(g11
S'r\xc5\xc5Q\xb9\t\xe0?'
p178
tp179
Rp180
ssF273.3888209859153
(dp181
g24
g28
sg29
g25
(g11
S']m\xc5\xfe\xb2\xdbS@'
p182
tp183
Rp184
ssF210.88679347825925
(dp185
g24
g36
sg29
g25
(g11
S'\x10\xd6\xb5\xac\xb1:\x90?'
p186
tp187
Rp188
ssF56.92252022625824
(dp189
g24
g47
sg29
g25
(g11
S'\x882\xaf~\xc7Kr?'
p190
tp191
Rp192
ssF416.73269492369116
(dp193
g24
g28
sg29
g25
(g11
S'U\x16\x85]\x14=\xd4?'
p194
tp195
Rp196
ssF61.29219419342754
(dp197
g24
g117
sg29
g25
(g11
S"\xce67\xa6'\x0c\x14@"
p198
tp199
Rp200
ssF216.0977326075391
(dp201
g24
g36
sg29
g25
(g11
S'\xd3\xcd\x0fm\x11b\xa4?'
p202
tp203
Rp204
ssF53.41801838034028
(dp205
g24
g47
sg29
g25
(g11
S'y\x1e\xdc\x9d\xb5[\xf9?'
p206
tp207
Rp208
ssF49.09512748570806
(dp209
g24
g117
sg29
g25
(g11
S'\xc5 \xb0rh\x9dq@'
p210
tp211
Rp212
ssF56.9136868218625
(dp213
g24
g47
sg29
g25
(g11
S'\x84b\xd0\xae\xe7\x10m?'
p214
tp215
Rp216
ssF263.1211283821424
(dp217
g24
g28
sg29
g25
(g11
S'\xcb\xdb\x11N\x0b\xde\x11@'
p218
tp219
Rp220
ssF83.95087540919329
(dp221
g24
g70
sg29
g25
(g11
S'\xc1\x8b\xbe\x824\xd3!@'
p222
tp223
Rp224
ssF93.6951992034322
(dp225
g24
g117
sg29
g25
(g11
S'\xe3\xb2\xc0\r\xe7\xd0\xb6?'
p226
tp227
Rp228
ssF99.06955861743889
(dp229
g24
g70
sg29
g25
(g11
S'\x9a\xb1h:;\xd9\x0f@'
p230
tp231
Rp232
ssF28.11582476571168
(dp233
g24
g47
sg29
g25
(g11
S'\xb4\xc8v\xbe\x9f\xd2\x88@'
p234
tp235
Rp236
ssF266.42789338253255
(dp237
g24
g28
sg29
g25
(g11
S'K\xc8\x07=\x9b\xbdA@'
p238
tp239
Rp240
ssF259.898963081032
(dp241
g24
g28
sg29
g25
(g11
S'k+\xf6\x97\xdd\xf33@'
p242
tp243
Rp244
ssF150.53950908728407
(dp245
g24
g70
sg29
g25
(g11
S'U\x16\x85]\x14=\xd4?'
p246
tp247
Rp248
ssF57.54996217949467
(dp249
g24
g47
sg29
g25
(g11
S'\x00\x00\x00\x00\x00\x00\xf0?'
p250
tp251
Rp252
ssF26.77924598923715
(dp253
g24
g47
sg29
g25
(g11
S'K\xc8\x07=\x9b\xbdA@'
p254
tp255
Rp256
ssF79.58729062016579
(dp257
g24
g70
sg29
g25
(g11
S'\x0eO\xaf\x94e\xc81@'
p258
tp259
Rp260
ssF46.04106227881963
(dp261
g24
g117
sg29
g25
(g11
S'.\xff!\xfd\xf6\x1dL@'
p262
tp263
Rp264
ssF353.5774357866932
(dp265
g24
g28
sg29
g25
(g11
S'\xael\xd5d|Np?'
p266
tp267
Rp268
ssF79.64957750251982
(dp269
g24
g70
sg29
g25
(g11
S'\xde\x02\t\x8a\x1fc6@'
p270
tp271
Rp272
ssF49.36138686274735
(dp273
g24
g117
sg29
g25
(g11
S'\xcb\x10\xc7\xba\xb8-)@'
p274
tp275
Rp276
ssF67.05392647804827
(dp277
g24
g117
sg29
g25
(g11
S'\xdf\xa6?\xfb\x91b\x0c@'
p278
tp279
Rp280
ssF41.75032604288633
(dp281
g24
g47
sg29
g25
(g11
S"\xce67\xa6'\x0c\x14@"
p282
tp283
Rp284
ssF84.74491581713009
(dp285
g24
g70
sg29
g25
(g11
S'\xb2.n\xa3\x01HV@'
p286
tp287
Rp288
ssF210.45199041033865
(dp289
g24
g36
sg29
g25
(g11
S'\xb1{<>k\xc8\x89?'
p290
tp291
Rp292
ssF91.51536344034402
(dp293
g24
g70
sg29
g25
(g11
S'X\xff\xe70_~\x16@'
p294
tp295
Rp296
ssF64.17687192592443
(dp297
g24
g47
sg29
g25
(g11
S'>[\x07\x07{\x13\xd0?'
p298
tp299
Rp300
ssF228.07015635739444
(dp301
g24
g36
sg29
g25
(g11
S'\xe0e\x86\x8d\xb2\xfe\xe1?'
p302
tp303
Rp304
ssF56.91057507296944
(dp305
g24
g47
sg29
g25
(g11
S'p\x83\x90\xe2\xd2\xe7i?'
p306
tp307
Rp308
ssF47.64398899697531
(dp309
g24
g117
sg29
g25
(g11
S'\xfe\xd4x\xe9&y_@'
p310
tp311
Rp312
ssF64.18629353867459
(dp313
g24
g47
sg29
g25
(g11
S'\xfd\xbb>s\xd6\xa7\xcc?'
p314
tp315
Rp316
ssF96.42884757035466
(dp317
g24
g70
sg29
g25
(g11
S'\xcb\xdb\x11N\x0b\xde\x11@'
p318
tp319
Rp320
ssF209.69460946077038
(dp321
g24
g36
sg29
g25
(g11
S'\xff-\xb7j\x8d\xf7Y?'
p322
tp323
Rp324
ssF39.20027795117804
(dp325
g24
g47
sg29
g25
(g11
S'wJ\x07\xeb\xff<\x19@'
p326
tp327
Rp328
ssF210.64584298632516
(dp329
g24
g36
sg29
g25
(g11
S'\x9a\xe5W\x18\xc7\xed\x8c?'
p330
tp331
Rp332
ssF141.40152376542025
(dp333
g24
g36
sg29
g25
(g11
S'9\xd6\xc5m4@,@'
p334
tp335
Rp336
ssF367.7162484608046
(dp337
g24
g28
sg29
g25
(g11
S'\xd3\xcd\x0fm\x11b\xa4?'
p338
tp339
Rp340
ssF29.87990957576
(dp341
g24
g47
sg29
g25
(g11
S'\x0eO\xaf\x94e\xc81@'
p342
tp343
Rp344
ssF254.04019252990014
(dp345
g24
g28
sg29
g25
(g11
S'.\xe2;1\xeb\xc5\x1f@'
p346
tp347
Rp348
ssF47.1767351723898
(dp349
g24
g117
sg29
g25
(g11
S'\x00\x00\x00\x00\x00\x00Y@'
p350
tp351
Rp352
ssF33.45671878024991
(dp353
g24
g47
sg29
g25
(g11
S'\x8d(\xed\r\xbep&@'
p354
tp355
Rp356
ssF28.0398830520891
(dp357
g24
g47
sg29
g25
(g11
S'!\xb0rh\x91\x1f\x86@'
p358
tp359
Rp360
ssF89.5883349607233
(dp361
g24
g70
sg29
g25
(g11
S'!\xb0rh\x91\x1f\x86@'
p362
tp363
Rp364
ssF26.288742789678686
(dp365
g24
g47
sg29
g25
(g11
S'\xb2.n\xa3\x01HV@'
p366
tp367
Rp368
ssF156.64224670043512
(dp369
g24
g36
sg29
g25
(g11
S'\x96C\x8bl\xe7\xfbk@'
p370
tp371
Rp372
ssF86.42366827436433
(dp373
g24
g117
sg29
g25
(g11
S'\xff-\xb7j\x8d\xf7Y?'
p374
tp375
Rp376
ssF63.95217257167973
(dp377
g24
g47
sg29
g25
(g11
S'E\x13(b\x11\xc3\xc6?'
p378
tp379
Rp380
ssF48.09710987622523
(dp381
g24
g117
sg29
g25
(g11
S'\xcf\xf7S\xe3\xa5\xcfc@'
p382
tp383
Rp384
ssF141.90305105664348
(dp385
g24
g36
sg29
g25
(g11
S'\x00\x00\x00\x00\x00\x00$@'
p386
tp387
Rp388
ssF46.940237928842365
(dp389
g24
g117
sg29
g25
(g11
S'\xb2.n\xa3\x01HV@'
p390
tp391
Rp392
ssF138.58408186759513
(dp393
g24
g70
sg29
g25
(g11
S'\xbf\x81\xc9\x8d"k\xe9?'
p394
tp395
Rp396
ssF86.46644893432745
(dp397
g24
g117
sg29
g25
(g11
S'0\x02t\xa9[\x87t?'
p398
tp399
Rp400
ssF340.22773503796833
(dp401
g24
g28
sg29
g25
(g11
S'\xa4SW>\xcb\xf3\xf1?'
p402
tp403
Rp404
ssF46.58097247457293
(dp405
g24
g117
sg29
g25
(g11
S'k+\xf6\x97\xdd\xf33@'
p406
tp407
Rp408
ssF177.12992040065137
(dp409
g24
g36
sg29
g25
(g11
S'~5\x07\x08\xe6\xe8\x01@'
p410
tp411
Rp412
ssF353.47236539712793
(dp413
g24
g28
sg29
g25
(g11
S'\xe6\xef9\x0b\xd6\x93d?'
p414
tp415
Rp416
ssF134.70048650140808
(dp417
g24
g70
sg29
g25
(g11
S'1ce\x8f\xab\xec\x96?'
p418
tp419
Rp420
ssF133.37876156901652
(dp421
g24
g70
sg29
g25
(g11
S'0\x02t\xa9[\x87t?'
p422
tp423
Rp424
ssF224.90171113986602
(dp425
g24
g36
sg29
g25
(g11
S',\xd5\x05\xbc\xcc0\xe4?'
p426
tp427
Rp428
ssF97.9047919471584
(dp429
g24
g117
sg29
g25
(g11
S'\xfd\xbb>s\xd6\xa7\xcc?'
p430
tp431
Rp432
ssF119.49693737297714
(dp433
g24
g70
sg29
g25
(g11
S'\x16\x18\xb2\xba\xd5s\xfc?'
p434
tp435
Rp436
ssF413.9860406510899
(dp437
g24
g28
sg29
g25
(g11
S'\x80\xef6o\x9c\x14\xc2?'
p438
tp439
Rp440
ssF40.48293529245665
(dp441
g24
g47
sg29
g25
(g11
S'X\xff\xe70_~\x16@'
p442
tp443
Rp444
ssF50.391870874564795
(dp445
g24
g117
sg29
g25
(g11
S'\x8d(\xed\r\xbep&@'
p446
tp447
Rp448
ssF272.5701489325246
(dp449
g24
g28
sg29
g25
(g11
S'\xb4Y\xf5\xb9\xda\xb2Q@'
p450
tp451
Rp452
ssF51.54414594123451
(dp453
g24
g117
sg29
g25
(g11
S'\x00\x00\x00\x00\x00\x00$@'
p454
tp455
Rp456
ssF56.902338604394096
(dp457
g24
g47
sg29
g25
(g11
S'\xd0#\xeb\x15\xbb"]?'
p458
tp459
Rp460
ssF92.02531955971101
(dp461
g24
g117
sg29
g25
(g11
S'5\xc0\xbbK\x98\x1f\xb2?'
p462
tp463
Rp464
ssF159.36057608899878
(dp465
g24
g36
sg29
g25
(g11
S'^\xbaI\x0c\x02\xda\x8b@'
p466
tp467
Rp468
ssF27.09470126315756
(dp469
g24
g47
sg29
g25
(g11
S'\x96C\x8bl\xe7\xfbk@'
p470
tp471
Rp472
ssF26.5304090984281
(dp473
g24
g47
sg29
g25
(g11
S'\x00o\x81\x04\xc5\xe7C@'
p474
tp475
Rp476
ssF268.71602685391457
(dp477
g24
g28
sg29
g25
(g11
S'\xbdR\x96!\x8eUF@'
p478
tp479
Rp480
ssF143.42716688447666
(dp481
g24
g70
sg29
g25
(g11
S'2\xce:>\xb5U\xb4?'
p482
tp483
Rp484
ssF49.0043749876218
(dp485
g24
g47
sg29
g25
(g11
S'\x0e2\xc9\xc8Y\x18\x04@'
p486
tp487
Rp488
ssF354.0929835471804
(dp489
g24
g28
sg29
g25
(g11
S'\x08N\xc7\xad\x93D\x80?'
p490
tp491
Rp492
ssF146.9053790823303
(dp493
g24
g36
sg29
g25
(g11
S'wJ\x07\xeb\xff<\x19@'
p494
tp495
Rp496
ssF265.19760132260524
(dp497
g24
g28
sg29
g25
(g11
S'\xe5\xf2\x1f\xd2o\x9f?@'
p498
tp499
Rp500
ssF238.90013386027303
(dp501
g24
g36
sg29
g25
(g11
S'U\x16\x85]\x14=\xd4?'
p502
tp503
Rp504
ssF150.20549085997408
(dp505
g24
g36
sg29
g25
(g11
S'.\xff!\xfd\xf6\x1dL@'
p506
tp507
Rp508
ssF86.53759065772415
(dp509
g24
g117
sg29
g25
(g11
S'\x08N\xc7\xad\x93D\x80?'
p510
tp511
Rp512
ssF57.19051305194175
(dp513
g24
g47
sg29
g25
(g11
S'\x10\xd6\xb5\xac\xb1:\x90?'
p514
tp515
Rp516
ssF28.187704374219344
(dp517
g24
g47
sg29
g25
(g11
S'^\xbaI\x0c\x02\xda\x8b@'
p518
tp519
Rp520
ssF50.445471818617726
(dp521
g24
g117
sg29
g25
(g11
S'^\xbaI\x0c\x02\xda\x8b@'
p522
tp523
Rp524
ssF420.34836587609465
(dp525
g24
g28
sg29
g25
(g11
S'-\xd1Yf\x11\x8a\xc9?'
p526
tp527
Rp528
ssF226.54607032986377
(dp529
g24
g36
sg29
g25
(g11
S'2\xce:>\xb5U\xb4?'
p530
tp531
Rp532
ssF240.57725931637478
(dp533
g24
g36
sg29
g25
(g11
S'\xfd\xbb>s\xd6\xa7\xcc?'
p534
tp535
Rp536
ssF32.4551058900931
(dp537
g24
g47
sg29
g25
(g11
S'\xcb\x10\xc7\xba\xb8-)@'
p538
tp539
Rp540
ssF154.53508427890102
(dp541
g24
g36
sg29
g25
(g11
S'\xfe\xd4x\xe9&y_@'
p542
tp543
Rp544
ssF92.72707640573236
(dp545
g24
g117
sg29
g25
(g11
S',\xd5\x05\xbc\xcc0\xe4?'
p546
tp547
Rp548
ssF164.1667382861181
(dp549
g24
g36
sg29
g25
(g11
S'\xea[\xe6tYL\t@'
p550
tp551
Rp552
ssF363.0816457644901
(dp553
g24
g28
sg29
g25
(g11
S'w\xab\x9d\x17\xdd0\xa0?'
p554
tp555
Rp556
ssF87.5164747954545
(dp557
g24
g117
sg29
g25
(g11
S'0\xc5\x0b\xd8\xc4\xb8\x99?'
p558
tp559
Rp560
ssF48.72080763763317
(dp561
g24
g117
sg29
g25
(g11
S'\x96C\x8bl\xe7\xfbk@'
p562
tp563
Rp564
ssF233.0661532470788
(dp565
g24
g36
sg29
g25
(g11
S'\x06\xb9\x8b0E\xb9\xbc?'
p566
tp567
Rp568
ssF82.92101623193714
(dp569
g24
g70
sg29
g25
(g11
S'.\xff!\xfd\xf6\x1dL@'
p570
tp571
Rp572
ssF365.2132414003794
(dp573
g24
g28
sg29
g25
(g11
S'\x997=\xde\x9a*\xa2?'
p574
tp575
Rp576
ssF96.99657824357651
(dp577
g24
g117
sg29
g25
(g11
S'\x7f\x85\xcc\x95A\xb5\xd6?'
p578
tp579
Rp580
ssF35.606498681148395
(dp581
g24
g47
sg29
g25
(g11
S'\xc1\x8b\xbe\x824\xd3!@'
p582
tp583
Rp584
ssF133.76679363667088
(dp585
g24
g70
sg29
g25
(g11
S'\xb1{<>k\xc8\x89?'
p586
tp587
Rp588
ssF133.30766698476953
(dp589
g24
g70
sg29
g25
(g11
S'\xc9V\x97S\x02bR?'
p590
tp591
Rp592
ssF168.3006479794196
(dp593
g24
g36
sg29
g25
(g11
S'\x95\x9a=\xd0\n\x8c\x06@'
p594
tp595
Rp596
ssF274.8659555369881
(dp597
g24
g28
sg29
g25
(g11
S'\x00\x00\x00\x00\x00\x00Y@'
p598
tp599
Rp600
ssF237.4667920080647
(dp601
g24
g36
sg29
g25
(g11
S'\x7f\x85\xcc\x95A\xb5\xd6?'
p602
tp603
Rp604
ssF27.30850170219438
(dp605
g24
g47
sg29
g25
(g11
S'\xc5 \xb0rh\x9dq@'
p606
tp607
Rp608
ssF133.42223740645053
(dp609
g24
g70
sg29
g25
(g11
S'\xe2\xd8iZ\x18\xd8y?'
p610
tp611
Rp612
ssF255.1392309727457
(dp613
g24
g28
sg29
g25
(g11
S'\xcb\x10\xc7\xba\xb8-)@'
p614
tp615
Rp616
ssF57.08514356569922
(dp617
g24
g47
sg29
g25
(g11
S'\xb1{<>k\xc8\x89?'
p618
tp619
Rp620
ssF209.71349922875422
(dp621
g24
g36
sg29
g25
(g11
S'\xe6\xef9\x0b\xd6\x93d?'
p622
tp623
Rp624
ssF358.8272678876899
(dp625
g24
g28
sg29
g25
(g11
S'\x9c\xdf0\xd1 \x85\xec?'
p626
tp627
Rp628
ssF83.39706385529635
(dp629
g24
g70
sg29
g25
(g11
S'\x15\x1d\xc9\xe5?\x8cO@'
p630
tp631
Rp632
ssF230.97979718835506
(dp633
g24
g36
sg29
g25
(g11
S'\x9a\x99\x99\x99\x99\x99\xb9?'
p634
tp635
Rp636
ssF315.2816169201245
(dp637
g24
g28
sg29
g25
(g11
S'y\x1e\xdc\x9d\xb5[\xf9?'
p638
tp639
Rp640
ssF158.53765910808374
(dp641
g24
g36
sg29
g25
(g11
S'\xa2E\xb6\xf3\xfdR\x7f@'
p642
tp643
Rp644
ssF50.124786654718115
(dp645
g24
g117
sg29
g25
(g11
S'-\xb2\x9d\xef\xa7\xb7\x83@'
p646
tp647
Rp648
ssF27.100326815298427
(dp649
g24
g47
sg29
g25
(g11
S'\xe5\xf2\x1f\xd2o\x9f?@'
p650
tp651
Rp652
ssF80.24554559796245
(dp653
g24
g117
sg29
g25
(g11
S'y\x1e\xdc\x9d\xb5[\xf9?'
p654
tp655
Rp656
ssF209.87890893029297
(dp657
g24
g36
sg29
g25
(g11
S'\xe2\xd8iZ\x18\xd8y?'
p658
tp659
Rp660
ssF83.86142125027905
(dp661
g24
g70
sg29
g25
(g11
S'\xb4Y\xf5\xb9\xda\xb2Q@'
p662
tp663
Rp664
ssF140.80286020056698
(dp665
g24
g70
sg29
g25
(g11
S'B\xb0\xaa^~\xa7\xe6?'
p666
tp667
Rp668
ssF420.7782059519633
(dp669
g24
g28
sg29
g25
(g11
S'\xfd\xbb>s\xd6\xa7\xcc?'
p670
tp671
Rp672
ssF57.352036645935115
(dp673
g24
g47
sg29
g25
(g11
S'$t\xe1Qtn\x94?'
p674
tp675
Rp676
ssF195.6054126357996
(dp677
g24
g36
sg29
g25
(g11
S'`\xab\x04\x8b\xc3\x99\xf6?'
p678
tp679
Rp680
ssF62.54744235557654
(dp681
g24
g47
sg29
g25
(g11
S'\x06\xb9\x8b0E\xb9\xbc?'
p682
tp683
Rp684
ssF323.2354852483377
(dp685
g24
g28
sg29
g25
(g11
S'`\xab\x04\x8b\xc3\x99\xf6?'
p686
tp687
Rp688
ssF266.6580930172844
(dp689
g24
g28
sg29
g25
(g11
S'\x9a\xb1h:;\xd9\x0f@'
p690
tp691
Rp692
ssF142.63831193536188
(dp693
g24
g36
sg29
g25
(g11
S'\xc1\x8b\xbe\x824\xd3!@'
p694
tp695
Rp696
ssF80.17538771544511
(dp697
g24
g70
sg29
g25
(g11
S';\x01M\x84\r/<@'
p698
tp699
Rp700
ssF257.298963083452
(dp701
g24
g28
sg29
g25
(g11
S'\x18&S\x05\xa3\xb2/@'
p702
tp703
Rp704
ssF107.48553858423826
(dp705
g24
g70
sg29
g25
(g11
S'\x95\x9a=\xd0\n\x8c\x06@'
p706
tp707
Rp708
ssF79.55408134945777
(dp709
g24
g70
sg29
g25
(g11
S'k+\xf6\x97\xdd\xf33@'
p710
tp711
Rp712
ssF85.49374839672416
(dp713
g24
g70
sg29
g25
(g11
S'.\xe2;1\xeb\xc5\x1f@'
p714
tp715
Rp716
ssF133.65833447217412
(dp717
g24
g70
sg29
g25
(g11
S'\x00\x00\x00\x00\x00\x00\xf0?'
p718
tp719
Rp720
ssF80.99886660929704
(dp721
g24
g70
sg29
g25
(g11
S'K\xc8\x07=\x9b\xbdA@'
p722
tp723
Rp724
ssF55.51922861097527
(dp725
g24
g47
sg29
g25
(g11
S'\xa3@\x9f\xc8\x93$\xf4?'
p726
tp727
Rp728
ssF209.6883669365711
(dp729
g24
g36
sg29
g25
(g11
S'\xc9V\x97S\x02bR?'
p730
tp731
Rp732
ssF86.4427859320561
(dp733
g24
g117
sg29
g25
(g11
S'\x84b\xd0\xae\xe7\x10m?'
p734
tp735
Rp736
ssF133.31336777341036
(dp737
g24
g70
sg29
g25
(g11
S'\xd0#\xeb\x15\xbb"]?'
p738
tp739
Rp740
ssF212.0053239937941
(dp741
g24
g36
sg29
g25
(g11
S'1ce\x8f\xab\xec\x96?'
p742
tp743
Rp744
ssF353.4580364165154
(dp745
g24
g28
sg29
g25
(g11
S'\xa9D#\xe9\xe4Vb?'
p746
tp747
Rp748
ssF280.92312508322055
(dp749
g24
g28
sg29
g25
(g11
S'\x95\x9a=\xd0\n\x8c\x06@'
p750
tp751
Rp752
ssF50.002704621660826
(dp753
g24
g117
sg29
g25
(g11
S'}?5^\xba\x92\x81@'
p754
tp755
Rp756
ssF26.76839639346307
(dp757
g24
g47
sg29
g25
(g11
S'\xcf\xf7S\xe3\xa5\xcfc@'
p758
tp759
Rp760
ssF68.98294850541254
(dp761
g24
g117
sg29
g25
(g11
S'\xea[\xe6tYL\t@'
p762
tp763
Rp764
ssF49.588565951008896
(dp765
g24
g117
sg29
g25
(g11
S'\xc1\xca\xa1E\xb6\xe1x@'
p766
tp767
Rp768
ssF235.59162983946817
(dp769
g24
g36
sg29
g25
(g11
S'H\xc1S\xc8\x95z\xd9?'
p770
tp771
Rp772
ssF238.47169587052989
(dp773
g24
g36
sg29
g25
(g11
S'\x94K\xe3\x17^I\xc4?'
p774
tp775
Rp776
ssF353.49038976076554
(dp777
g24
g28
sg29
g25
(g11
S'\x03*w\xfa\x9c\x16g?'
p778
tp779
Rp780
ssF86.99297940038674
(dp781
g24
g117
sg29
g25
(g11
S'\x04\xa9\xb9\x81\xa75\x92?'
p782
tp783
Rp784
ssF86.45670423622715
(dp785
g24
g117
sg29
g25
(g11
S'\x882\xaf~\xc7Kr?'
p786
tp787
Rp788
ssF89.84195819446313
(dp789
g24
g70
sg29
g25
(g11
S'^\xbaI\x0c\x02\xda\x8b@'
p790
tp791
Rp792
ssF58.50253735361644
(dp793
g24
g47
sg29
g25
(g11
S'\x9c\xdf0\xd1 \x85\xec?'
p794
tp795
Rp796
ssF57.047444015585995
(dp797
g24
g47
sg29
g25
(g11
S'8\xc7o\xc0\x9d\xfa\x86?'
p798
tp799
Rp800
ssF373.9165403480725
(dp801
g24
g28
sg29
g25
(g11
S'\xb6\x08\xd6\x82(\xa9\xa9?'
p802
tp803
Rp804
ssF209.70192262793014
(dp805
g24
g36
sg29
g25
(g11
S'\xb4\xd8\xdc\x87rX`?'
p806
tp807
Rp808
ssF149.4257388516815
(dp809
g24
g70
sg29
g25
(g11
S'\x80\xef6o\x9c\x14\xc2?'
p810
tp811
Rp812
ssF97.79098160792591
(dp813
g24
g117
sg29
g25
(g11
S'-\xd1Yf\x11\x8a\xc9?'
p814
tp815
Rp816
ssF133.36342241808163
(dp817
g24
g70
sg29
g25
(g11
S'\x882\xaf~\xc7Kr?'
p818
tp819
Rp820
ssF355.1135638865978
(dp821
g24
g28
sg29
g25
(g11
S'\xb1{<>k\xc8\x89?'
p822
tp823
Rp824
ssF65.12406383915328
(dp825
g24
g117
sg29
g25
(g11
S'\x9a\xb1h:;\xd9\x0f@'
p826
tp827
Rp828
ssF278.6052644726241
(dp829
g24
g28
sg29
g25
(g11
S'\x96C\x8bl\xe7\xfbk@'
p830
tp831
Rp832
ssF80.56269335914787
(dp833
g24
g70
sg29
g25
(g11
S'\xe5\xf2\x1f\xd2o\x9f?@'
p834
tp835
Rp836
ssF396.32951057440175
(dp837
g24
g28
sg29
g25
(g11
S'\xe3\xb2\xc0\r\xe7\xd0\xb6?'
p838
tp839
Rp840
ssF293.4233834957568
(dp841
g24
g28
sg29
g25
(g11
S'~5\x07\x08\xe6\xe8\x01@'
p842
tp843
Rp844
ssF137.15889650745288
(dp845
g24
g70
sg29
g25
(g11
S'\xd3\xcd\x0fm\x11b\xa4?'
p846
tp847
Rp848
ssF92.84788102175017
(dp849
g24
g117
sg29
g25
(g11
S'2\xce:>\xb5U\xb4?'
p850
tp851
Rp852
ssF254.37874633240278
(dp853
g24
g28
sg29
g25
(g11
S'\x8d(\xed\r\xbep&@'
p854
tp855
Rp856
ssF49.26856051639357
(dp857
g24
g117
sg29
g25
(g11
S'\xcf\xf7S\xe3\xa5\xc3s@'
p858
tp859
Rp860
ssF89.9204829266033
(dp861
g24
g117
sg29
g25
(g11
S'\xb6\x08\xd6\x82(\xa9\xa9?'
p862
tp863
Rp864
ssF209.8066033223974
(dp865
g24
g36
sg29
g25
(g11
S'0\x02t\xa9[\x87t?'
p866
tp867
Rp868
ssF356.74492146648316
(dp869
g24
g28
sg29
g25
(g11
S'\x04\xa9\xb9\x81\xa75\x92?'
p870
tp871
Rp872
ssF217.38927619705916
(dp873
g24
g36
sg29
g25
(g11
S'\x88LT\xca\xc6\xde\xa6?'
p874
tp875
Rp876
ssF45.8640961759703
(dp877
g24
g117
sg29
g25
(g11
S'\x91~\xfb:p\x1e9@'
p878
tp879
Rp880
ssF82.43665819313073
(dp881
g24
g70
sg29
g25
(g11
S'\x81\x04\xc5\x8f1\x0fI@'
p882
tp883
Rp884
ssF45.564375369110735
(dp885
g24
g117
sg29
g25
(g11
S'\xe5\xf2\x1f\xd2o\x9f?@'
p886
tp887
Rp888
ssF133.5385394857148
(dp889
g24
g70
sg29
g25
(g11
S'\xc6m4\x80\xb7@\x82?'
p890
tp891
Rp892
ssF281.1266397123368
(dp893
g24
g28
sg29
g25
(g11
S'-\xb2\x9d\xef\xa7\xb7\x83@'
p894
tp895
Rp896
ssF354.4908984793849
(dp897
g24
g28
sg29
g25
(g11
S'{\x14\xaeG\xe1z\x84?'
p898
tp899
Rp900
ssF91.25400518705082
(dp901
g24
g117
sg29
g25
(g11
S"\x8a\xaa\x040\n'\xb0?"
p902
tp903
Rp904
ssF376.4473201517622
(dp905
g24
g28
sg29
g25
(g11
S'B\xb0\xaa^~\xa7\xe6?'
p906
tp907
Rp908
ssF150.93050831671553
(dp909
g24
g36
sg29
g25
(g11
S'\x15\x1d\xc9\xe5?\x8cO@'
p910
tp911
Rp912
ssF27.49676094748876
(dp913
g24
g47
sg29
g25
(g11
S';\x01M\x84\r/<@'
p914
tp915
Rp916
ssF97.43186806339233
(dp917
g24
g117
sg29
g25
(g11
S'U\x16\x85]\x14=\xd4?'
p918
tp919
Rp920
ssF50.239096888821194
(dp921
g24
g117
sg29
g25
(g11
S'!\xb0rh\x91\x1f\x86@'
p922
tp923
Rp924
ssF209.23589540257007
(dp925
g24
g36
sg29
g25
(g11
S'\x00\x00\x00\x00\x00\x00\xf0?'
p926
tp927
Rp928
ssF61.00168558960845
(dp929
g24
g47
sg29
g25
(g11
S',\xd5\x05\xbc\xcc0\xe4?'
p930
tp931
Rp932
ssF224.3855538330585
(dp933
g24
g36
sg29
g25
(g11
S'5\xc0\xbbK\x98\x1f\xb2?'
p934
tp935
Rp936
ssF94.53605597169383
(dp937
g24
g117
sg29
g25
(g11
S'\x9a\x99\x99\x99\x99\x99\xb9?'
p938
tp939
Rp940
ssF154.17233228443587
(dp941
g24
g36
sg29
g25
(g11
S'\xcb\xdb\x11N\x0b\xde\x11@'
p942
tp943
Rp944
ssF239.88974001063752
(dp945
g24
g36
sg29
g25
(g11
S'wH1@\xa2\t\xd2?'
p946
tp947
Rp948
ssF63.63538365243432
(dp949
g24
g47
sg29
g25
(g11
S'\x7f\x85\xcc\x95A\xb5\xd6?'
p950
tp951
Rp952
ssF90.1262055776896
(dp953
g24
g117
sg29
g25
(g11
S'\xbf\x81\xc9\x8d"k\xe9?'
p954
tp955
Rp956
ssF34.510612741583614
(dp957
g24
g47
sg29
g25
(g11
S'\x00\x00\x00\x00\x00\x00$@'
p958
tp959
Rp960
ssF56.899727184918255
(dp961
g24
g47
sg29
g25
(g11
S'\xfc\xa9\xf1\xd2MbP?'
p962
tp963
Rp964
ssF63.90290118958081
(dp965
g24
g47
sg29
g25
(g11
S'U\x16\x85]\x14=\xd4?'
p966
tp967
Rp968
ssF209.72161388426377
(dp969
g24
g36
sg29
g25
(g11
S'\x03*w\xfa\x9c\x16g?'
p970
tp971
Rp972
ssF94.84614674926756
(dp973
g24
g117
sg29
g25
(g11
S'r\xc5\xc5Q\xb9\t\xe0?'
p974
tp975
Rp976
ssF157.29330711482214
(dp977
g24
g36
sg29
g25
(g11
S'\xc5 \xb0rh\x9dq@'
p978
tp979
Rp980
ssF280.4933551901838
(dp981
g24
g28
sg29
g25
(g11
S'm\xe7\xfb\xa9\xf1\xea{@'
p982
tp983
Rp984
ssF353.5415732063428
(dp985
g24
g28
sg29
g25
(g11
S'\x84b\xd0\xae\xe7\x10m?'
p986
tp987
Rp988
ssF27.4112058707924
(dp989
g24
g47
sg29
g25
(g11
S'\xcf\xf7S\xe3\xa5\xc3s@'
p990
tp991
Rp992
ssF254.7884885393374
(dp993
g24
g28
sg29
g25
(g11
S'S\\U\xf6]Q\x1c@'
p994
tp995
Rp996
ssF63.20055522712995
(dp997
g24
g117
sg29
g25
(g11
S'\xcb\xdb\x11N\x0b\xde\x11@'
p998
tp999
Rp1000
ssF358.5712397783751
(dp1001
g24
g28
sg29
g25
(g11
S'1ce\x8f\xab\xec\x96?'
p1002
tp1003
Rp1004
ssF27.608074974903964
(dp1005
g24
g47
sg29
g25
(g11
S'\xc1\xca\xa1E\xb6\xe1x@'
p1006
tp1007
Rp1008
ssF200.23294850841333
(dp1009
g24
g36
sg29
g25
(g11
S'\xa3@\x9f\xc8\x93$\xf4?'
p1010
tp1011
Rp1012
ssF87.11488737074434
(dp1013
g24
g117
sg29
g25
(g11
S'\x00\x00\x00\x00\x00\x00\xf0?'
p1014
tp1015
Rp1016
ssF44.23905382987183
(dp1017
g24
g47
sg29
g25
(g11
S'\x9a\xb1h:;\xd9\x0f@'
p1018
tp1019
Rp1020
ssF26.87190731139604
(dp1021
g24
g47
sg29
g25
(g11
S'\xd1"\xdb\xf9~:f@'
p1022
tp1023
Rp1024
ssF150.21463913449023
(dp1025
g24
g70
sg29
g25
(g11
S'\x94K\xe3\x17^I\xc4?'
p1026
tp1027
Rp1028
ssF157.1886996574711
(dp1029
g24
g36
sg29
g25
(g11
S'\x9a\xb1h:;\xd9\x0f@'
p1030
tp1031
Rp1032
ssF26.364766428585025
(dp1033
g24
g47
sg29
g25
(g11
S'\x00\x00\x00\x00\x00\x00Y@'
p1034
tp1035
Rp1036
ssF391.9693219986564
(dp1037
g24
g28
sg29
g25
(g11
S'\xe0e\x86\x8d\xb2\xfe\xe1?'
p1038
tp1039
Rp1040
ssF97.88335229246906
(dp1041
g24
g117
sg29
g25
(g11
S'>[\x07\x07{\x13\xd0?'
p1042
tp1043
Rp1044
ssF45.593104421989466
(dp1045
g24
g117
sg29
g25
(g11
S'\x00o\x81\x04\xc5\xe7C@'
p1046
tp1047
Rp1048
ssF104.6132414747132
(dp1049
g24
g70
sg29
g25
(g11
S'\xea[\xe6tYL\t@'
p1050
tp1051
Rp1052
ssF27.960065463450633
(dp1053
g24
g47
sg29
g25
(g11
S'-\xb2\x9d\xef\xa7\xb7\x83@'
p1054
tp1055
Rp1056
ssF85.55980569334017
(dp1057
g24
g70
sg29
g25
(g11
S'\xb0rh\x91\xed\x0c\\@'
p1058
tp1059
Rp1060
ssF279.66903375345834
(dp1061
g24
g28
sg29
g25
(g11
S'\xcf\xf7S\xe3\xa5\xc3s@'
p1062
tp1063
Rp1064
ssF89.30013250360206
(dp1065
g24
g70
sg29
g25
(g11
S'wJ\x07\xeb\xff<\x19@'
p1066
tp1067
Rp1068
ssF88.44112374976116
(dp1069
g24
g117
sg29
g25
(g11
S'\x997=\xde\x9a*\xa2?'
p1070
tp1071
Rp1072
ssF125.39632404281996
(dp1073
g24
g70
sg29
g25
(g11
S'`\xab\x04\x8b\xc3\x99\xf6?'
p1074
tp1075
Rp1076
ssF93.90203099200039
(dp1077
g24
g70
sg29
g25
(g11
S"\xce67\xa6'\x0c\x14@"
p1078
tp1079
Rp1080
ssF349.57296849674526
(dp1081
g24
g28
sg29
g25
(g11
S'\x00\x00\x00\x00\x00\x00\xf0?'
p1082
tp1083
Rp1084
ssF86.44895306193557
(dp1085
g24
g117
sg29
g25
(g11
S'\xael\xd5d|Np?'
p1086
tp1087
Rp1088
ssF56.9364741137199
(dp1089
g24
g47
sg29
g25
(g11
S'?+z\xf1\x8f\x08w?'
p1090
tp1091
Rp1092
ssF86.42490528036076
(dp1093
g24
g117
sg29
g25
(g11
S'\xd0#\xeb\x15\xbb"]?'
p1094
tp1095
Rp1096
ssF172.6403670925029
(dp1097
g24
g36
sg29
g25
(g11
S'\x0e2\xc9\xc8Y\x18\x04@'
p1098
tp1099
Rp1100
ssF50.538370207948994
(dp1101
g24
g117
sg29
g25
(g11
S'\x00\x00\x00\x00\x00@\x8f@'
p1102
tp1103
Rp1104
ssF260.1821020819456
(dp1105
g24
g28
sg29
g25
(g11
S"\xce67\xa6'\x0c\x14@"
p1106
tp1107
Rp1108
ssF70.90505346895584
(dp1109
g24
g117
sg29
g25
(g11
S'\x95\x9a=\xd0\n\x8c\x06@'
p1110
tp1111
Rp1112
ssF133.45262427155473
(dp1113
g24
g70
sg29
g25
(g11
S'mq\x8d\xcfd\xff|?'
p1114
tp1115
Rp1116
ssF64.08281855383484
(dp1117
g24
g47
sg29
g25
(g11
S'wH1@\xa2\t\xd2?'
p1118
tp1119
Rp1120
ssF151.61998292552926
(dp1121
g24
g36
sg29
g25
(g11
S'\xb4Y\xf5\xb9\xda\xb2Q@'
p1122
tp1123
Rp1124
ssF28.53906862657178
(dp1125
g24
g47
sg29
g25
(g11
S'\xde\x02\t\x8a\x1fc6@'
p1126
tp1127
Rp1128
ssF88.07744775305724
(dp1129
g24
g117
sg29
g25
(g11
S'w\xab\x9d\x17\xdd0\xa0?'
p1130
tp1131
Rp1132
ssF133.30864376487582
(dp1133
g24
g70
sg29
g25
(g11
S'\xdfB\r\x955\xa0T?'
p1134
tp1135
Rp1136
ssF89.35991905699359
(dp1137
g24
g117
sg29
g25
(g11
S'\x88LT\xca\xc6\xde\xa6?'
p1138
tp1139
Rp1140
ssF50.345906142359844
(dp1141
g24
g117
sg29
g25
(g11
S'\xb4\xc8v\xbe\x9f\xd2\x88@'
p1142
tp1143
Rp1144
ssF56.900433906438046
(dp1145
g24
g47
sg29
g25
(g11
S'\xdfB\r\x955\xa0T?'
p1146
tp1147
Rp1148
ssF93.85128307120549
(dp1149
g24
g117
sg29
g25
(g11
S'\xe0e\x86\x8d\xb2\xfe\xe1?'
p1150
tp1151
Rp1152
ssF281.7429015017442
(dp1153
g24
g28
sg29
g25
(g11
S'\x00\x00\x00\x00\x00@\x8f@'
p1154
tp1155
Rp1156
ssF151.1811435158923
(dp1157
g24
g70
sg29
g25
(g11
S'-\xd1Yf\x11\x8a\xc9?'
p1158
tp1159
Rp1160
ssF353.6791817154809
(dp1161
g24
g28
sg29
g25
(g11
S'0\x02t\xa9[\x87t?'
p1162
tp1163
Rp1164
ssF26.55171275723833
(dp1165
g24
g47
sg29
g25
(g11
S'\xfe\xd4x\xe9&y_@'
p1166
tp1167
Rp1168
ssF46.70451158674833
(dp1169
g24
g117
sg29
g25
(g11
S']m\xc5\xfe\xb2\xdbS@'
p1170
tp1171
Rp1172
ssF87.56493780128133
(dp1173
g24
g70
sg29
g25
(g11
S'\x96C\x8bl\xe7\xfbk@'
p1174
tp1175
Rp1176
ssF133.31142061039816
(dp1177
g24
g70
sg29
g25
(g11
S'\xff-\xb7j\x8d\xf7Y?'
p1178
tp1179
Rp1180
ssF280.72349947654305
(dp1181
g24
g28
sg29
g25
(g11
S'\xa2E\xb6\xf3\xfdR\x7f@'
p1182
tp1183
Rp1184
ssF155.88689665580816
(dp1185
g24
g36
sg29
g25
(g11
S'\xd1"\xdb\xf9~:f@'
p1186
tp1187
Rp1188
ssF26.980300277797724
(dp1189
g24
g47
sg29
g25
(g11
S'F\xb6\xf3\xfd\xd4\xf0h@'
p1190
tp1191
Rp1192
ssF50.14411915265289
(dp1193
g24
g47
sg29
g25
(g11
S'~5\x07\x08\xe6\xe8\x01@'
p1194
tp1195
Rp1196
ssF133.30987304228782
(dp1197
g24
g70
sg29
g25
(g11
S'M\xf3\x8eSt$W?'
p1198
tp1199
Rp1200
ssF181.7054421371339
(dp1201
g24
g36
sg29
g25
(g11
S'xE\xf0\xbf\x95\xec\xff?'
p1202
tp1203
Rp1204
ssF353.4466516781235
(dp1205
g24
g28
sg29
g25
(g11
S'\xb4\xd8\xdc\x87rX`?'
p1206
tp1207
Rp1208
ssF146.98425162070043
(dp1209
g24
g36
sg29
g25
(g11
S'K\xc8\x07=\x9b\xbdA@'
p1210
tp1211
Rp1212
ssF27.789932116011386
(dp1213
g24
g47
sg29
g25
(g11
S'\xa2E\xb6\xf3\xfdR\x7f@'
p1214
tp1215
Rp1216
ssF353.5130624342061
(dp1217
g24
g28
sg29
g25
(g11
S'p\x83\x90\xe2\xd2\xe7i?'
p1218
tp1219
Rp1220
ssF54.174225080847265
(dp1221
g24
g117
sg29
g25
(g11
S'.\xe2;1\xeb\xc5\x1f@'
p1222
tp1223
Rp1224
ssF151.29693743703697
(dp1225
g24
g70
sg29
g25
(g11
S'>[\x07\x07{\x13\xd0?'
p1226
tp1227
Rp1228
ssF54.455109135016244
(dp1229
g24
g47
sg29
g25
(g11
S'`\xab\x04\x8b\xc3\x99\xf6?'
p1230
tp1231
Rp1232
ssF49.735062190680914
(dp1233
g24
g117
sg29
g25
(g11
S'm\xe7\xfb\xa9\xf1\xea{@'
p1234
tp1235
Rp1236
ssF63.28099071300764
(dp1237
g24
g47
sg29
g25
(g11
S'H\xc1S\xc8\x95z\xd9?'
p1238
tp1239
Rp1240
ssF146.30334750208306
(dp1241
g24
g70
sg29
g25
(g11
S'r\xc5\xc5Q\xb9\t\xe0?'
p1242
tp1243
Rp1244
ssF398.65076361726705
(dp1245
g24
g28
sg29
g25
(g11
S'r\xc5\xc5Q\xb9\t\xe0?'
p1246
tp1247
Rp1248
ssF209.68707636494608
(dp1249
g24
g36
sg29
g25
(g11
S'\xfc\xa9\xf1\xd2MbP?'
p1250
tp1251
Rp1252
ssF27.510370977478853
(dp1253
g24
g47
sg29
g25
(g11
S'^\xbaI\x0c\x02-v@'
p1254
tp1255
Rp1256
ssF153.47333198245187
(dp1257
g24
g36
sg29
g25
(g11
S'\x00\x00\x00\x00\x00\x00Y@'
p1258
tp1259
Rp1260
ssF30.65789096624081
(dp1261
g24
g47
sg29
g25
(g11
S'\x18&S\x05\xa3\xb2/@'
p1262
tp1263
Rp1264
ssF413.5634871843789
(dp1265
g24
g28
sg29
g25
(g11
S'\x7f\x85\xcc\x95A\xb5\xd6?'
p1266
tp1267
Rp1268
ssF95.70410432464504
(dp1269
g24
g117
sg29
g25
(g11
S'\xab_\xe9|x\x96\xdc?'
p1270
tp1271
Rp1272
ssF60.23460529558127
(dp1273
g24
g47
sg29
g25
(g11
S'B\xb0\xaa^~\xa7\xe6?'
p1274
tp1275
Rp1276
ssF370.61268445852323
(dp1277
g24
g28
sg29
g25
(g11
S'\x88LT\xca\xc6\xde\xa6?'
p1278
tp1279
Rp1280
ssF217.59918901979816
(dp1281
g24
g36
sg29
g25
(g11
S'\xbf\x81\xc9\x8d"k\xe9?'
p1282
tp1283
Rp1284
ssF256.1362444133591
(dp1285
g24
g28
sg29
g25
(g11
S'9\xd6\xc5m4@,@'
p1286
tp1287
Rp1288
ssF307.63575639647377
(dp1289
g24
g28
sg29
g25
(g11
S'\x16\x18\xb2\xba\xd5s\xfc?'
p1290
tp1291
Rp1292
ssF253.7615429450888
(dp1293
g24
g28
sg29
g25
(g11
S'\xc1\x8b\xbe\x824\xd3!@'
p1294
tp1295
Rp1296
ssF26.659891920108375
(dp1297
g24
g47
sg29
g25
(g11
S'\xe3\xa5\x9b\xc4 \xa8a@'
p1298
tp1299
Rp1300
ssF213.52869417761963
(dp1301
g24
g36
sg29
g25
(g11
S'\x9c\xdf0\xd1 \x85\xec?'
p1302
tp1303
Rp1304
ssF97.54373567469817
(dp1305
g24
g117
sg29
g25
(g11
S'E\x13(b\x11\xc3\xc6?'
p1306
tp1307
Rp1308
ssF280.93409824544426
(dp1309
g24
g28
sg29
g25
(g11
S'}?5^\xba\x92\x81@'
p1310
tp1311
Rp1312
ssF88.32672535986592
(dp1313
g24
g70
sg29
g25
(g11
S'\xcf\xf7S\xe3\xa5\xc3s@'
p1314
tp1315
Rp1316
ssF47.41172319456211
(dp1317
g24
g117
sg29
g25
(g11
S'\xb0rh\x91\xed\x0c\\@'
p1318
tp1319
Rp1320
ssF276.1451592287115
(dp1321
g24
g28
sg29
g25
(g11
S'\xfe\xd4x\xe9&y_@'
p1322
tp1323
Rp1324
ssF269.769427188899
(dp1325
g24
g28
sg29
g25
(g11
S'\x81\x04\xc5\x8f1\x0fI@'
p1326
tp1327
Rp1328
ssF48.91089103855698
(dp1329
g24
g117
sg29
g25
(g11
S'5^\xbaI\x0cfo@'
p1330
tp1331
Rp1332
ssF240.28614235312233
(dp1333
g24
g36
sg29
g25
(g11
S'-\xd1Yf\x11\x8a\xc9?'
p1334
tp1335
Rp1336
ssF45.458864761368304
(dp1337
g24
g47
sg29
g25
(g11
S'\xdf\xa6?\xfb\x91b\x0c@'
p1338
tp1339
Rp1340
ssF133.31581800678669
(dp1341
g24
g70
sg29
g25
(g11
S'\xb4\xd8\xdc\x87rX`?'
p1342
tp1343
Rp1344
ssF48.467043655596754
(dp1345
g24
g117
sg29
g25
(g11
S'9\xd6\xc5m4@,@'
p1346
tp1347
Rp1348
ssF56.553701219283845
(dp1349
g24
g47
sg29
g25
(g11
S'\xa4SW>\xcb\xf3\xf1?'
p1350
tp1351
Rp1352
ssF145.25904424270385
(dp1353
g24
g36
sg29
g25
(g11
S';\x01M\x84\r/<@'
p1354
tp1355
Rp1356
ssF221.40064624100438
(dp1357
g24
g36
sg29
g25
(g11
S'B\xb0\xaa^~\xa7\xe6?'
p1358
tp1359
Rp1360
ssF275.5561770478922
(dp1361
g24
g28
sg29
g25
(g11
S'\xea[\xe6tYL\t@'
p1362
tp1363
Rp1364
ssF87.28464366384081
(dp1365
g24
g70
sg29
g25
(g11
S'S\\U\xf6]Q\x1c@'
p1366
tp1367
Rp1368
ssF210.07233935450782
(dp1369
g24
g36
sg29
g25
(g11
S'\xc6m4\x80\xb7@\x82?'
p1370
tp1371
Rp1372
ssF86.43088409176362
(dp1373
g24
g117
sg29
g25
(g11
S'\xe6\xef9\x0b\xd6\x93d?'
p1374
tp1375
Rp1376
ssF142.83900255993217
(dp1377
g24
g70
sg29
g25
(g11
S',\xd5\x05\xbc\xcc0\xe4?'
p1378
tp1379
Rp1380
ssF262.5954884579385
(dp1381
g24
g28
sg29
g25
(g11
S'\x91~\xfb:p\x1e9@'
p1382
tp1383
Rp1384
ssF281.3025209821478
(dp1385
g24
g28
sg29
g25
(g11
S'!\xb0rh\x91\x1f\x86@'
p1386
tp1387
Rp1388
ssF27.70095350983824
(dp1389
g24
g47
sg29
g25
(g11
S'm\xe7\xfb\xa9\xf1\xea{@'
p1390
tp1391
Rp1392
ssF95.33121577100151
(dp1393
g24
g117
sg29
g25
(g11
S'\x06\xb9\x8b0E\xb9\xbc?'
p1394
tp1395
Rp1396
ssF159.48658979874398
(dp1397
g24
g36
sg29
g25
(g11
S'\x00\x00\x00\x00\x00@\x8f@'
p1398
tp1399
Rp1400
ssF214.02656821355058
(dp1401
g24
g36
sg29
g25
(g11
S'w\xab\x9d\x17\xdd0\xa0?'
p1402
tp1403
Rp1404
ssF46.47284397386038
(dp1405
g24
g117
sg29
g25
(g11
S'\xb4Y\xf5\xb9\xda\xb2Q@'
p1406
tp1407
Rp1408
ssF148.45894193985995
(dp1409
g24
g70
sg29
g25
(g11
S'O\xcd\xe5\x06C\x1d\xc0?'
p1410
tp1411
Rp1412
ssF279.3436656087576
(dp1413
g24
g28
sg29
g25
(g11
S'\xc5 \xb0rh\x9dq@'
p1414
tp1415
Rp1416
ssF209.69203575312952
(dp1417
g24
g36
sg29
g25
(g11
S'M\xf3\x8eSt$W?'
p1418
tp1419
Rp1420
ssF257.82535586612727
(dp1421
g24
g28
sg29
g25
(g11
S'X\xff\xe70_~\x16@'
p1422
tp1423
Rp1424
ssF353.41654257023754
(dp1425
g24
g28
sg29
g25
(g11
S'\xc9V\x97S\x02bR?'
p1426
tp1427
Rp1428
ssF158.90938264545147
(dp1429
g24
g36
sg29
g25
(g11
S'-\xb2\x9d\xef\xa7\xb7\x83@'
p1430
tp1431
Rp1432
ssF26.247347501466045
(dp1433
g24
g47
sg29
g25
(g11
S'\x81\x04\xc5\x8f1\x0fI@'
p1434
tp1435
Rp1436
ssF253.90071662557537
(dp1437
g24
g28
sg29
g25
(g11
S'\x00\x00\x00\x00\x00\x00$@'
p1438
tp1439
Rp1440
ssF52.35159829144692
(dp1441
g24
g47
sg29
g25
(g11
S'\x16\x18\xb2\xba\xd5s\xfc?'
p1442
tp1443
Rp1444
ssF56.94623351316007
(dp1445
g24
g47
sg29
g25
(g11
S'\xe2\xd8iZ\x18\xd8y?'
p1446
tp1447
Rp1448
ssF190.9636451797017
(dp1449
g24
g36
sg29
g25
(g11
S'y\x1e\xdc\x9d\xb5[\xf9?'
p1450
tp1451
Rp1452
ssF83.79831122867304
(dp1453
g24
g117
sg29
g25
(g11
S'\xa3@\x9f\xc8\x93$\xf4?'
p1454
tp1455
Rp1456
ssF86.30256264004646
(dp1457
g24
g70
sg29
g25
(g11
S'\xe3\xa5\x9b\xc4 \xa8a@'
p1458
tp1459
Rp1460
ssF27.876513490171035
(dp1461
g24
g47
sg29
g25
(g11
S'}?5^\xba\x92\x81@'
p1462
tp1463
Rp1464
ssF128.24536521096823
(dp1465
g24
g70
sg29
g25
(g11
S'\xa3@\x9f\xc8\x93$\xf4?'
p1466
tp1467
Rp1468
ssF263.9166726842089
(dp1469
g24
g28
sg29
g25
(g11
S';\x01M\x84\r/<@'
p1470
tp1471
Rp1472
ssF48.310598683642745
(dp1473
g24
g117
sg29
g25
(g11
S'\xd1"\xdb\xf9~:f@'
p1474
tp1475
Rp1476
ssF56.9033265259129
(dp1477
g24
g47
sg29
g25
(g11
S'\xb4\xd8\xdc\x87rX`?'
p1478
tp1479
Rp1480
ssF133.3512212945693
(dp1481
g24
g70
sg29
g25
(g11
S'\xael\xd5d|Np?'
p1482
tp1483
Rp1484
ssF133.32277898535682
(dp1485
g24
g70
sg29
g25
(g11
S'\xe6\xef9\x0b\xd6\x93d?'
p1486
tp1487
Rp1488
ssF82.65693407209989
(dp1489
g24
g70
sg29
g25
(g11
S'\x00\x00\x00\x00\x00\x00$@'
p1490
tp1491
Rp1492
ssF26.35444917645438
(dp1493
g24
g47
sg29
g25
(g11
S'\xbdR\x96!\x8eUF@'
p1494
tp1495
Rp1496
ssF86.96975406870314
(dp1497
g24
g70
sg29
g25
(g11
S'\xd1"\xdb\xf9~:f@'
p1498
tp1499
Rp1500
ssF45.85574995860796
(dp1501
g24
g117
sg29
g25
(g11
S'\x81\x04\xc5\x8f1\x0fI@'
p1502
tp1503
Rp1504
ssF86.87900004129528
(dp1505
g24
g117
sg29
g25
(g11
S'\x10\xd6\xb5\xac\xb1:\x90?'
p1506
tp1507
Rp1508
ssF416.92241713746546
(dp1509
g24
g28
sg29
g25
(g11
S'\x94K\xe3\x17^I\xc4?'
p1510
tp1511
Rp1512
ssF58.18149487116486
(dp1513
g24
g47
sg29
g25
(g11
S'\x997=\xde\x9a*\xa2?'
p1514
tp1515
Rp1516
ssF146.0849273574664
(dp1517
g24
g70
sg29
g25
(g11
S'\x9a\x99\x99\x99\x99\x99\xb9?'
p1518
tp1519
Rp1520
ssF147.83016681583698
(dp1521
g24
g36
sg29
g25
(g11
S'\x00o\x81\x04\xc5\xe7C@'
p1522
tp1523
Rp1524
ssF88.6665177501894
(dp1525
g24
g117
sg29
g25
(g11
S'\x9c\xdf0\xd1 \x85\xec?'
p1526
tp1527
Rp1528
ssF81.46510217213071
(dp1529
g24
g70
sg29
g25
(g11
S'\x00o\x81\x04\xc5\xe7C@'
p1530
tp1531
Rp1532
ssF47.87407640282992
(dp1533
g24
g117
sg29
g25
(g11
S'\xe3\xa5\x9b\xc4 \xa8a@'
p1534
tp1535
Rp1536
ssF85.4893028197579
(dp1537
g24
g117
sg29
g25
(g11
S'\xa4SW>\xcb\xf3\xf1?'
p1538
tp1539
Rp1540
ssF211.18528724754555
(dp1541
g24
g36
sg29
g25
(g11
S'\x04\xa9\xb9\x81\xa75\x92?'
p1542
tp1543
Rp1544
ssF59.39992068608567
(dp1545
g24
g47
sg29
g25
(g11
S'\xbf\x81\xc9\x8d"k\xe9?'
p1546
tp1547
Rp1548
ssF97.1662141861114
(dp1549
g24
g117
sg29
g25
(g11
S'\x94K\xe3\x17^I\xc4?'
p1550
tp1551
Rp1552
ssF81.94895961646397
(dp1553
g24
g70
sg29
g25
(g11
S'\xbdR\x96!\x8eUF@'
p1554
tp1555
Rp1556
ssF148.65298558029144
(dp1557
g24
g36
sg29
g25
(g11
S'\xbdR\x96!\x8eUF@'
p1558
tp1559
Rp1560
ssF209.6978477229649
(dp1561
g24
g36
sg29
g25
(g11
S'\xd0#\xeb\x15\xbb"]?'
p1562
tp1563
Rp1564
ssF86.42268512541585
(dp1565
g24
g117
sg29
g25
(g11
S'M\xf3\x8eSt$W?'
p1566
tp1567
Rp1568
ssF86.43788293926869
(dp1569
g24
g117
sg29
g25
(g11
S'p\x83\x90\xe2\xd2\xe7i?'
p1570
tp1571
Rp1572
ssF149.01102023206494
(dp1573
g24
g36
sg29
g25
(g11
S'X\xff\xe70_~\x16@'
p1574
tp1575
Rp1576
ssF148.87985594203403
(dp1577
g24
g70
sg29
g25
(g11
S'H\xc1S\xc8\x95z\xd9?'
p1578
tp1579
Rp1580
ssF143.71204196258296
(dp1581
g24
g36
sg29
g25
(g11
S'.\xe2;1\xeb\xc5\x1f@'
p1582
tp1583
Rp1584
ssF279.9678430285288
(dp1585
g24
g28
sg29
g25
(g11
S'^\xbaI\x0c\x02-v@'
p1586
tp1587
Rp1588
ssF356.0806617616809
(dp1589
g24
g28
sg29
g25
(g11
S'\x10\xd6\xb5\xac\xb1:\x90?'
p1590
tp1591
Rp1592
ssF57.75666165248451
(dp1593
g24
g47
sg29
g25
(g11
S'%\xa7\x1b\xcd6\xdc\x9c?'
p1594
tp1595
Rp1596
ssF418.9812719461636
(dp1597
g24
g28
sg29
g25
(g11
S'wH1@\xa2\t\xd2?'
p1598
tp1599
Rp1600
ssF60.974450606698845
(dp1601
g24
g47
sg29
g25
(g11
S'2\xce:>\xb5U\xb4?'
p1602
tp1603
Rp1604
ssF353.6225111727462
(dp1605
g24
g28
sg29
g25
(g11
S'\x882\xaf~\xc7Kr?'
p1606
tp1607
Rp1608
ssF419.05366415900875
(dp1609
g24
g28
sg29
g25
(g11
S'E\x13(b\x11\xc3\xc6?'
p1610
tp1611
Rp1612
ssF86.42128364695324
(dp1613
g24
g117
sg29
g25
(g11
S'\xc9V\x97S\x02bR?'
p1614
tp1615
Rp1616
ssF62.308954256062485
(dp1617
g24
g47
sg29
g25
(g11
S'r\xc5\xc5Q\xb9\t\xe0?'
p1618
tp1619
Rp1620
ssF31.518063563911607
(dp1621
g24
g47
sg29
g25
(g11
S'9\xd6\xc5m4@,@'
p1622
tp1623
Rp1624
ssF26.226995635584192
(dp1625
g24
g47
sg29
g25
(g11
S']m\xc5\xfe\xb2\xdbS@'
p1626
tp1627
Rp1628
ssF46.66061565191625
(dp1629
g24
g47
sg29
g25
(g11
S'\xea[\xe6tYL\t@'
p1630
tp1631
Rp1632
ssF213.22434334719898
(dp1633
g24
g36
sg29
g25
(g11
S'%\xa7\x1b\xcd6\xdc\x9c?'
p1634
tp1635
Rp1636
ssF79.78111712946718
(dp1637
g24
g70
sg29
g25
(g11
S'\x18&S\x05\xa3\xb2/@'
p1638
tp1639
Rp1640
ssF147.33591601808095
(dp1641
g24
g70
sg29
g25
(g11
S'\x06\xb9\x8b0E\xb9\xbc?'
p1642
tp1643
Rp1644
ssF86.65354745686479
(dp1645
g24
g117
sg29
g25
(g11
S'8\xc7o\xc0\x9d\xfa\x86?'
p1646
tp1647
Rp1648
ssF86.56795215053177
(dp1649
g24
g117
sg29
g25
(g11
S'\xc6m4\x80\xb7@\x82?'
p1650
tp1651
Rp1652
ssF212.556558750931
(dp1653
g24
g36
sg29
g25
(g11
S'0\xc5\x0b\xd8\xc4\xb8\x99?'
p1654
tp1655
Rp1656
ssF155.46708240096706
(dp1657
g24
g36
sg29
g25
(g11
S'\xcf\xf7S\xe3\xa5\xcfc@'
p1658
tp1659
Rp1660
ssF144.67710466206213
(dp1661
g24
g70
sg29
g25
(g11
S'\xe0e\x86\x8d\xb2\xfe\xe1?'
p1662
tp1663
Rp1664
ssF89.95436658891091
(dp1665
g24
g70
sg29
g25
(g11
S'\x00\x00\x00\x00\x00@\x8f@'
p1666
tp1667
Rp1668
ssF60.453364635762476
(dp1669
g24
g47
sg29
g25
(g11
S'5\xc0\xbbK\x98\x1f\xb2?'
p1670
tp1671
Rp1672
ssF142.1318179002072
(dp1673
g24
g70
sg29
g25
(g11
S'5\xc0\xbbK\x98\x1f\xb2?'
p1674
tp1675
Rp1676
ssF218.85990721169895
(dp1677
g24
g36
sg29
g25
(g11
S'\xb6\x08\xd6\x82(\xa9\xa9?'
p1678
tp1679
Rp1680
ssF228.77171205263764
(dp1681
g24
g36
sg29
g25
(g11
S'\xe3\xb2\xc0\r\xe7\xd0\xb6?'
p1682
tp1683
Rp1684
ssF61.511150090493004
(dp1685
g24
g47
sg29
g25
(g11
S'\xe3\xb2\xc0\r\xe7\xd0\xb6?'
p1686
tp1687
Rp1688
ssF59.96465660986592
(dp1689
g24
g47
sg29
g25
(g11
S"\x8a\xaa\x040\n'\xb0?"
p1690
tp1691
Rp1692
ssF86.60597956717353
(dp1693
g24
g117
sg29
g25
(g11
S'{\x14\xaeG\xe1z\x84?'
p1694
tp1695
Rp1696
ssF300.3588566615335
(dp1697
g24
g28
sg29
g25
(g11
S'xE\xf0\xbf\x95\xec\xff?'
p1698
tp1699
Rp1700
ssF278.98971623986307
(dp1701
g24
g28
sg29
g25
(g11
S'5^\xbaI\x0cfo@'
p1702
tp1703
Rp1704
ssF354.26962412507
(dp1705
g24
g28
sg29
g25
(g11
S'\xc6m4\x80\xb7@\x82?'
p1706
tp1707
Rp1708
ssF391.2773148210221
(dp1709
g24
g28
sg29
g25
(g11
S'2\xce:>\xb5U\xb4?'
p1710
tp1711
Rp1712
ssF146.1228497586032
(dp1713
g24
g36
sg29
g25
(g11
S'\xe5\xf2\x1f\xd2o\x9f?@'
p1714
tp1715
Rp1716
ssF222.36009364088656
(dp1717
g24
g36
sg29
g25
(g11
S"\x8a\xaa\x040\n'\xb0?"
p1718
tp1719
Rp1720
ssF353.8398163343824
(dp1721
g24
g28
sg29
g25
(g11
S'\xe2\xd8iZ\x18\xd8y?'
p1722
tp1723
Rp1724
ssF122.48000422140214
(dp1725
g24
g70
sg29
g25
(g11
S'y\x1e\xdc\x9d\xb5[\xf9?'
p1726
tp1727
Rp1728
ssF86.43398384715394
(dp1729
g24
g117
sg29
g25
(g11
S'\x03*w\xfa\x9c\x16g?'
p1730
tp1731
Rp1732
ssF74.70446120554503
(dp1733
g24
g117
sg29
g25
(g11
S'~5\x07\x08\xe6\xe8\x01@'
p1734
tp1735
Rp1736
ssF151.02903966219182
(dp1737
g24
g70
sg29
g25
(g11
S'wH1@\xa2\t\xd2?'
p1738
tp1739
Rp1740
ssF96.66191979337374
(dp1741
g24
g117
sg29
g25
(g11
S'\x80\xef6o\x9c\x14\xc2?'
p1742
tp1743
Rp1744
ssF141.7288081868739
(dp1745
g24
g36
sg29
g25
(g11
S'\x18&S\x05\xa3\xb2/@'
p1746
tp1747
Rp1748
ssF26.185031652221774
(dp1749
g24
g47
sg29
g25
(g11
S'\xb4Y\xf5\xb9\xda\xb2Q@'
p1750
tp1751
Rp1752
ssF209.689991384836
(dp1753
g24
g36
sg29
g25
(g11
S'\xdfB\r\x955\xa0T?'
p1754
tp1755
Rp1756
ssF80.1616462453429
(dp1757
g24
g70
sg29
g25
(g11
S'9\xd6\xc5m4@,@'
p1758
tp1759
Rp1760
ssF353.43760067824326
(dp1761
g24
g28
sg29
g25
(g11
S'\xd0#\xeb\x15\xbb"]?'
p1762
tp1763
Rp1764
ssF353.4136760574221
(dp1765
g24
g28
sg29
g25
(g11
S'\xfc\xa9\xf1\xd2MbP?'
p1766
tp1767
Rp1768
ssF133.31889999326216
(dp1769
g24
g70
sg29
g25
(g11
S'\xa9D#\xe9\xe4Vb?'
p1770
tp1771
Rp1772
ssF355.54466122553987
(dp1773
g24
g28
sg29
g25
(g11
S'\x9a\xe5W\x18\xc7\xed\x8c?'
p1774
tp1775
Rp1776
ssF87.835170518457
(dp1777
g24
g70
sg29
g25
(g11
S'5^\xbaI\x0cfo@'
p1778
tp1779
Rp1780
ssF57.950834392552316
(dp1781
g24
g47
sg29
g25
(g11
S'w\xab\x9d\x17\xdd0\xa0?'
p1782
tp1783
Rp1784
ssF158.32729984326141
(dp1785
g24
g36
sg29
g25
(g11
S'm\xe7\xfb\xa9\xf1\xea{@'
p1786
tp1787
Rp1788
ssF61.695036199296716
(dp1789
g24
g47
sg29
g25
(g11
S'\xe0e\x86\x8d\xb2\xfe\xe1?'
p1790
tp1791
Rp1792
ssF141.29686852212885
(dp1793
g24
g36
sg29
g25
(g11
S'\xcb\x10\xc7\xba\xb8-)@'
p1794
tp1795
Rp1796
ssF59.41132960156439
(dp1797
g24
g117
sg29
g25
(g11
S'X\xff\xe70_~\x16@'
p1798
tp1799
Rp1800
ssF353.4304080292009
(dp1801
g24
g28
sg29
g25
(g11
S'\xff-\xb7j\x8d\xf7Y?'
p1802
tp1803
Rp1804
ssF59.11949017196568
(dp1805
g24
g47
sg29
g25
(g11
S'\xb6\x08\xd6\x82(\xa9\xa9?'
p1806
tp1807
Rp1808
ssF133.33379584006906
(dp1809
g24
g70
sg29
g25
(g11
S'p\x83\x90\xe2\xd2\xe7i?'
p1810
tp1811
Rp1812
ssF110.40621398519066
(dp1813
g24
g70
sg29
g25
(g11
S'\x0e2\xc9\xc8Y\x18\x04@'
p1814
tp1815
Rp1816
ssF59.519240055813654
(dp1817
g24
g47
sg29
g25
(g11
S'g\t\xd7H\xb7\xca\xac?'
p1818
tp1819
Rp1820
ssF142.8736525369592
(dp1821
g24
g36
sg29
g25
(g11
S'k+\xf6\x97\xdd\xf33@'
p1822
tp1823
Rp1824
ssF26.16881514904695
(dp1825
g24
g47
sg29
g25
(g11
S'\x15\x1d\xc9\xe5?\x8cO@'
p1826
tp1827
Rp1828
ssF210.2964445472773
(dp1829
g24
g36
sg29
g25
(g11
S'8\xc7o\xc0\x9d\xfa\x86?'
p1830
tp1831
Rp1832
ssF271.6951847636915
(dp1833
g24
g28
sg29
g25
(g11
S'\x15\x1d\xc9\xe5?\x8cO@'
p1834
tp1835
Rp1836
ssF86.42190418214395
(dp1837
g24
g117
sg29
g25
(g11
S'\xdfB\r\x955\xa0T?'
p1838
tp1839
Rp1840
ssF85.16134091563815
(dp1841
g24
g70
sg29
g25
(g11
S'\x00\x00\x00\x00\x00\x00Y@'
p1842
tp1843
Rp1844
ssF209.76080111347102
(dp1845
g24
g36
sg29
g25
(g11
S'\xael\xd5d|Np?'
p1846
tp1847
Rp1848
ssF84.31121732257732
(dp1849
g24
g70
sg29
g25
(g11
S']m\xc5\xfe\xb2\xdbS@'
p1850
tp1851
Rp1852
ssF143.60912979481495
(dp1853
g24
g36
sg29
g25
(g11
S'\xde\x02\t\x8a\x1fc6@'
p1854
tp1855
Rp1856
ssF144.4123527764509
(dp1857
g24
g36
sg29
g25
(g11
S'\x91~\xfb:p\x1e9@'
p1858
tp1859
Rp1860
ssF152.27343711563285
(dp1861
g24
g36
sg29
g25
(g11
S']m\xc5\xfe\xb2\xdbS@'
p1862
tp1863
Rp1864
ssF133.67327861617935
(dp1865
g24
g70
sg29
g25
(g11
S'8\xc7o\xc0\x9d\xfa\x86?'
p1866
tp1867
Rp1868
ssF150.80175828910987
(dp1869
g24
g70
sg29
g25
(g11
S'E\x13(b\x11\xc3\xc6?'
p1870
tp1871
Rp1872
ssF159.07293752948374
(dp1873
g24
g36
sg29
g25
(g11
S'!\xb0rh\x91\x1f\x86@'
p1874
tp1875
Rp1876
ssF89.29177900855464
(dp1877
g24
g70
sg29
g25
(g11
S'}?5^\xba\x92\x81@'
p1878
tp1879
Rp1880
ssF43.00254890131146
(dp1881
g24
g47
sg29
g25
(g11
S'\xcb\xdb\x11N\x0b\xde\x11@'
p1882
tp1883
Rp1884
ssF139.81024465503708
(dp1885
g24
g70
sg29
g25
(g11
S'g\t\xd7H\xb7\xca\xac?'
p1886
tp1887
Rp1888
ssF96.04574734124793
(dp1889
g24
g117
sg29
g25
(g11
S'O\xcd\xe5\x06C\x1d\xc0?'
p1890
tp1891
Rp1892
ssF209.92944669794687
(dp1893
g24
g36
sg29
g25
(g11
S'mq\x8d\xcfd\xff|?'
p1894
tp1895
Rp1896
ssF154.02099977725865
(dp1897
g24
g36
sg29
g25
(g11
S'\xb0rh\x91\xed\x0c\\@'
p1898
tp1899
Rp1900
ssF211.55347081672593
(dp1901
g24
g36
sg29
g25
(g11
S'$t\xe1Qtn\x94?'
p1902
tp1903
Rp1904
ssF86.7129537311098
(dp1905
g24
g117
sg29
g25
(g11
S'\xb1{<>k\xc8\x89?'
p1906
tp1907
Rp1908
ssF353.424691475004
(dp1909
g24
g28
sg29
g25
(g11
S'M\xf3\x8eSt$W?'
p1910
tp1911
Rp1912
ssF82.04590116572159
(dp1913
g24
g117
sg29
g25
(g11
S'`\xab\x04\x8b\xc3\x99\xf6?'
p1914
tp1915
Rp1916
ssF48.518446554494844
(dp1917
g24
g117
sg29
g25
(g11
S'F\xb6\xf3\xfd\xd4\xf0h@'
p1918
tp1919
Rp1920
ssF353.7503778086925
(dp1921
g24
g28
sg29
g25
(g11
S'?+z\xf1\x8f\x08w?'
p1922
tp1923
Rp1924
ssF145.13764025058902
(dp1925
g24
g36
sg29
g25
(g11
S'S\\U\xf6]Q\x1c@'
p1926
tp1927
Rp1928
ssF47.71178618124913
(dp1929
g24
g117
sg29
g25
(g11
S'\x18&S\x05\xa3\xb2/@'
p1930
tp1931
Rp1932
ssF80.7577244217164
(dp1933
g24
g70
sg29
g25
(g11
S'\xcb\x10\xc7\xba\xb8-)@'
p1934
tp1935
Rp1936
ssF286.8967445818974
(dp1937
g24
g28
sg29
g25
(g11
S'\x0e2\xc9\xc8Y\x18\x04@'
p1938
tp1939
Rp1940
ssF46.24932642967643
(dp1941
g24
g117
sg29
g25
(g11
S'\x15\x1d\xc9\xe5?\x8cO@'
p1942
tp1943
Rp1944
ssF89.72018852860356
(dp1945
g24
g70
sg29
g25
(g11
S'\xb4\xc8v\xbe\x9f\xd2\x88@'
p1946
tp1947
Rp1948
ssF47.08868626547103
(dp1949
g24
g117
sg29
g25
(g11
S'\x0eO\xaf\x94e\xc81@'
p1950
tp1951
Rp1952
ssF274.15333811056
(dp1953
g24
g28
sg29
g25
(g11
S'\xb2.n\xa3\x01HV@'
p1954
tp1955
Rp1956
ssF87.77133649150841
(dp1957
g24
g117
sg29
g25
(g11
S'%\xa7\x1b\xcd6\xdc\x9c?'
p1958
tp1959
Rp1960
ssF160.47236060202692
(dp1961
g24
g36
sg29
g25
(g11
S'\xdf\xa6?\xfb\x91b\x0c@'
p1962
tp1963
Rp1964
ssF214.97986868905255
(dp1965
g24
g36
sg29
g25
(g11
S'\x997=\xde\x9a*\xa2?'
p1966
tp1967
Rp1968
ssF275.5290743819292
(dp1969
g24
g28
sg29
g25
(g11
S'\xb0rh\x91\xed\x0c\\@'
p1970
tp1971
Rp1972
ssF45.54400932219229
(dp1973
g24
g117
sg29
g25
(g11
S'K\xc8\x07=\x9b\xbdA@'
p1974
tp1975
Rp1976
ssF147.7060667980754
(dp1977
g24
g70
sg29
g25
(g11
S'\xab_\xe9|x\x96\xdc?'
p1978
tp1979
Rp1980
ssF46.17108464913806
(dp1981
g24
g117
sg29
g25
(g11
S'\xde\x02\t\x8a\x1fc6@'
p1982
tp1983
Rp1984
ssF56.90155351776439
(dp1985
g24
g47
sg29
g25
(g11
S'\xff-\xb7j\x8d\xf7Y?'
p1986
tp1987
Rp1988
ssF359.8000766499536
(dp1989
g24
g28
sg29
g25
(g11
S'0\xc5\x0b\xd8\xc4\xb8\x99?'
p1990
tp1991
Rp1992
ssF256.0365270767584
(dp1993
g24
g28
sg29
g25
(g11
S'wJ\x07\xeb\xff<\x19@'
p1994
tp1995
Rp1996
ssF64.11106059863306
(dp1997
g24
g47
sg29
g25
(g11
S'-\xd1Yf\x11\x8a\xc9?'
p1998
tp1999
Rp2000
ssF155.01686005816836
(dp2001
g24
g36
sg29
g25
(g11
S'\xe3\xa5\x9b\xc4 \xa8a@'
p2002
tp2003
Rp2004
ssF57.1321239296126
(dp2005
g24
g47
sg29
g25
(g11
S'\x9a\xe5W\x18\xc7\xed\x8c?'
p2006
tp2007
Rp2008
ssF277.73562668302003
(dp2009
g24
g28
sg29
g25
(g11
S'\xd1"\xdb\xf9~:f@'
p2010
tp2011
Rp2012
ssF409.48745775438044
(dp2013
g24
g28
sg29
g25
(g11
S'H\xc1S\xc8\x95z\xd9?'
p2014
tp2015
Rp2016
ssF62.043735700932565
(dp2017
g24
g47
sg29
g25
(g11
S'\x9a\x99\x99\x99\x99\x99\xb9?'
p2018
tp2019
Rp2020
ssF157.5832680677589
(dp2021
g24
g36
sg29
g25
(g11
S'\xcf\xf7S\xe3\xa5\xc3s@'
p2022
tp2023
Rp2024
ssF88.86747033876773
(dp2025
g24
g117
sg29
g25
(g11
S'\xd3\xcd\x0fm\x11b\xa4?'
p2026
tp2027
Rp2028
ssF152.89106869951308
(dp2029
g24
g36
sg29
g25
(g11
S'\xb2.n\xa3\x01HV@'
p2030
tp2031
Rp2032
ssF331.4512875418683
(dp2033
g24
g28
sg29
g25
(g11
S'\xa3@\x9f\xc8\x93$\xf4?'
p2034
tp2035
Rp2036
ssF79.86155012609515
(dp2037
g24
g70
sg29
g25
(g11
S'\x91~\xfb:p\x1e9@'
p2038
tp2039
Rp2040
ssF209.7070481863419
(dp2041
g24
g36
sg29
g25
(g11
S'\xa9D#\xe9\xe4Vb?'
p2042
tp2043
Rp2044
ssF49.87281110627514
(dp2045
g24
g117
sg29
g25
(g11
S'\xa2E\xb6\xf3\xfdR\x7f@'
p2046
tp2047
Rp2048
ssF267.60159767226804
(dp2049
g24
g28
sg29
g25
(g11
S'\x00o\x81\x04\xc5\xe7C@'
p2050
tp2051
Rp2052
ssF278.1879018775139
(dp2053
g24
g28
sg29
g25
(g11
S'F\xb6\xf3\xfd\xd4\xf0h@'
p2054
tp2055
Rp2056
ssF86.42646187982037
(dp2057
g24
g117
sg29
g25
(g11
S'\xb4\xd8\xdc\x87rX`?'
p2058
tp2059
Rp2060
ssF63.39108751940211
(dp2061
g24
g47
sg29
g25
(g11
S'\x80\xef6o\x9c\x14\xc2?'
p2062
tp2063
Rp2064
ssF56.90092954553643
(dp2065
g24
g47
sg29
g25
(g11
S'M\xf3\x8eSt$W?'
p2066
tp2067
Rp2068
ssF135.43300295663076
(dp2069
g24
g70
sg29
g25
(g11
S'%\xa7\x1b\xcd6\xdc\x9c?'
p2070
tp2071
Rp2072
ssF281.4630523266602
(dp2073
g24
g28
sg29
g25
(g11
S'\xb4\xc8v\xbe\x9f\xd2\x88@'
p2074
tp2075
Rp2076
ssF56.993123287341646
(dp2077
g24
g47
sg29
g25
(g11
S'\xc6m4\x80\xb7@\x82?'
p2078
tp2079
Rp2080
ssF354.76774035425285
(dp2081
g24
g28
sg29
g25
(g11
S'8\xc7o\xc0\x9d\xfa\x86?'
p2082
tp2083
Rp2084
ssF204.78841128488824
(dp2085
g24
g36
sg29
g25
(g11
S'\xa4SW>\xcb\xf3\xf1?'
p2086
tp2087
Rp2088
ssF151.44072817131635
(dp2089
g24
g36
sg29
g25
(g11
S"\xce67\xa6'\x0c\x14@"
p2090
tp2091
Rp2092
ssF58.76411364095991
(dp2093
g24
g47
sg29
g25
(g11
S'\x88LT\xca\xc6\xde\xa6?'
p2094
tp2095
Rp2096
ssF56.906133152708854
(dp2097
g24
g47
sg29
g25
(g11
S'\xe6\xef9\x0b\xd6\x93d?'
p2098
tp2099
Rp2100
ssF133.39803146827654
(dp2101
g24
g70
sg29
g25
(g11
S'?+z\xf1\x8f\x08w?'
p2102
tp2103
Rp2104
ssF133.32765829514491
(dp2105
g24
g70
sg29
g25
(g11
S'\x03*w\xfa\x9c\x16g?'
p2106
tp2107
Rp2108
ssF57.26283820547529
(dp2109
g24
g47
sg29
g25
(g11
S'\x04\xa9\xb9\x81\xa75\x92?'
p2110
tp2111
Rp2112
ssF276.7167196645894
(dp2113
g24
g28
sg29
g25
(g11
S'\xe3\xa5\x9b\xc4 \xa8a@'
p2114
tp2115
Rp2116
ssF56.973854774593605
(dp2117
g24
g47
sg29
g25
(g11
S'\x08N\xc7\xad\x93D\x80?'
p2118
tp2119
Rp2120
ssF85.94007495893804
(dp2121
g24
g70
sg29
g25
(g11
S'\xfe\xd4x\xe9&y_@'
p2122
tp2123
Rp2124
ssF87.13355643563663
(dp2125
g24
g117
sg29
g25
(g11
S'$t\xe1Qtn\x94?'
p2126
tp2127
Rp2128
ssF88.54819890568416
(dp2129
g24
g70
sg29
g25
(g11
S'^\xbaI\x0c\x02-v@'
p2130
tp2131
Rp2132
ssF29.17676837140521
(dp2133
g24
g47
sg29
g25
(g11
S'k+\xf6\x97\xdd\xf33@'
p2134
tp2135
Rp2136
ssF76.56864581338439
(dp2137
g24
g117
sg29
g25
(g11
S'xE\xf0\xbf\x95\xec\xff?'
p2138
tp2139
Rp2140
ssF270.8019275671953
(dp2141
g24
g28
sg29
g25
(g11
S'\xdf\xa6?\xfb\x91b\x0c@'
p2142
tp2143
Rp2144
ssF133.49074666438852
(dp2145
g24
g70
sg29
g25
(g11
S'\x08N\xc7\xad\x93D\x80?'
p2146
tp2147
Rp2148
ssF88.9471557040332
(dp2149
g24
g70
sg29
g25
(g11
S'm\xe7\xfb\xa9\xf1\xea{@'
p2150
tp2151
Rp2152
ssF270.7621338265951
(dp2153
g24
g28
sg29
g25
(g11
S'.\xff!\xfd\xf6\x1dL@'
p2154
tp2155
Rp2156
ssF86.64591702683569
(dp2157
g24
g70
sg29
g25
(g11
S'\xcf\xf7S\xe3\xa5\xcfc@'
p2158
tp2159
Rp2160
ssF149.822901089324
(dp2161
g24
g70
sg29
g25
(g11
S'\x7f\x85\xcc\x95A\xb5\xd6?'
p2162
tp2163
Rp2164
ssF47.842932383304436
(dp2165
g24
g47
sg29
g25
(g11
S'\x95\x9a=\xd0\n\x8c\x06@'
p2166
tp2167
Rp2168
ssF210.17190071837373
(dp2169
g24
g36
sg29
g25
(g11
S'{\x14\xaeG\xe1z\x84?'
p2170
tp2171
Rp2172
ssF209.78109273354727
(dp2173
g24
g36
sg29
g25
(g11
S'\x882\xaf~\xc7Kr?'
p2174
tp2175
Rp2176
ssF136.4875751993496
(dp2177
g24
g70
sg29
g25
(g11
S'\x997=\xde\x9a*\xa2?'
p2178
tp2179
Rp2180
ssF280.24203730129443
(dp2181
g24
g28
sg29
g25
(g11
S'\xc1\xca\xa1E\xb6\xe1x@'
p2182
tp2183
Rp2184
ssF261.24980926421864
(dp2185
g24
g28
sg29
g25
(g11
S'\xde\x02\t\x8a\x1fc6@'
p2186
tp2187
Rp2188
ssF209.74465641093613
(dp2189
g24
g36
sg29
g25
(g11
S'\x84b\xd0\xae\xe7\x10m?'
p2190
tp2191
Rp2192
ssF86.42841982287355
(dp2193
g24
g117
sg29
g25
(g11
S'\xa9D#\xe9\xe4Vb?'
p2194
tp2195
Rp2196
ssF209.8386513616808
(dp2197
g24
g36
sg29
g25
(g11
S'?+z\xf1\x8f\x08w?'
p2198
tp2199
Rp2200
ssF86.42079065164624
(dp2201
g24
g117
sg29
g25
(g11
S'\xfc\xa9\xf1\xd2MbP?'
p2202
tp2203
Rp2204
ssF52.805045776515556
(dp2205
g24
g117
sg29
g25
(g11
S'\xc1\x8b\xbe\x824\xd3!@'
p2206
tp2207
Rp2208
ssF45.66617563387329
(dp2209
g24
g117
sg29
g25
(g11
S';\x01M\x84\r/<@'
p2210
tp2211
Rp2212
ssF89.44575483103092
(dp2213
g24
g70
sg29
g25
(g11
S'-\xb2\x9d\xef\xa7\xb7\x83@'
p2214
tp2215
Rp2216
ssF144.76132185672503
(dp2217
g24
g70
sg29
g25
(g11
S'\xe3\xb2\xc0\r\xe7\xd0\xb6?'
p2218
tp2219
Rp2220
ssF87.27589421080641
(dp2221
g24
g70
sg29
g25
(g11
S'F\xb6\xf3\xfd\xd4\xf0h@'
p2222
tp2223
Rp2224
ssF134.20761121907066
(dp2225
g24
g70
sg29
g25
(g11
S'\x04\xa9\xb9\x81\xa75\x92?'
p2226
tp2227
Rp2228
ssF220.51498605792955
(dp2229
g24
g36
sg29
g25
(g11
S'g\t\xd7H\xb7\xca\xac?'
p2230
tp2231
Rp2232
ssF401.3491864195973
(dp2233
g24
g28
sg29
g25
(g11
S'\x9a\x99\x99\x99\x99\x99\xb9?'
p2234
tp2235
Rp2236
ssF133.88333421544368
(dp2237
g24
g70
sg29
g25
(g11
S'\x9a\xe5W\x18\xc7\xed\x8c?'
p2238
tp2239
Rp2240
ssF361.28998459012746
(dp2241
g24
g28
sg29
g25
(g11
S'%\xa7\x1b\xcd6\xdc\x9c?'
p2242
tp2243
Rp2244
ssF56.95848483636435
(dp2245
g24
g47
sg29
g25
(g11
S'mq\x8d\xcfd\xff|?'
p2246
tp2247
Rp2248
ssF56.92870477872737
(dp2249
g24
g47
sg29
g25
(g11
S'0\x02t\xa9[\x87t?'
p2250
tp2251
Rp2252
ssF37.90552667267027
(dp2253
g24
g47
sg29
g25
(g11
S'S\\U\xf6]Q\x1c@'
p2254
tp2255
Rp2256
ssF406.0944338078583
(dp2257
g24
g28
sg29
g25
(g11
S'\x06\xb9\x8b0E\xb9\xbc?'
p2258
tp2259
Rp2260
ssF81.59218183069804
(dp2261
g24
g70
sg29
g25
(g11
S'\x8d(\xed\r\xbep&@'
p2262
tp2263
Rp2264
ssF86.49406829952429
(dp2265
g24
g117
sg29
g25
(g11
S'\xe2\xd8iZ\x18\xd8y?'
p2266
tp2267
Rp2268
ssF56.908100458888384
(dp2269
g24
g47
sg29
g25
(g11
S'\x03*w\xfa\x9c\x16g?'
p2270
tp2271
Rp2272
ssF55.80234772439159
(dp2273
g24
g117
sg29
g25
(g11
S'S\\U\xf6]Q\x1c@'
p2274
tp2275
Rp2276
ssF49.432688372568116
(dp2277
g24
g117
sg29
g25
(g11
S'^\xbaI\x0c\x02-v@'
p2278
tp2279
Rp2280
ssF158.0989549794412
(dp2281
g24
g36
sg29
g25
(g11
S'\xc1\xca\xa1E\xb6\xe1x@'
p2282
tp2283
Rp2284
ssF353.9521012133668
(dp2285
g24
g28
sg29
g25
(g11
S'mq\x8d\xcfd\xff|?'
p2286
tp2287
Rp2288
ssF141.4618334859471
(dp2289
g24
g36
sg29
g25
(g11
S'\x8d(\xed\r\xbep&@'
p2290
tp2291
Rp2292
ssF26.454106777014243
(dp2293
g24
g47
sg29
g25
(g11
S'\xb0rh\x91\xed\x0c\\@'
p2294
tp2295
Rp2296
ssF420.32466026821106
(dp2297
g24
g28
sg29
g25
(g11
S'>[\x07\x07{\x13\xd0?'
p2298
tp2299
Rp2300
ssF96.42142591536458
(dp2301
g24
g117
sg29
g25
(g11
S'H\xc1S\xc8\x95z\xd9?'
p2302
tp2303
Rp2304
ssF357.56465064314665
(dp2305
g24
g28
sg29
g25
(g11
S'$t\xe1Qtn\x94?'
p2306
tp2307
Rp2308
ssF151.34733320745184
(dp2309
g24
g70
sg29
g25
(g11
S'\xfd\xbb>s\xd6\xa7\xcc?'
p2310
tp2311
Rp2312
ssF135.91496037133484
(dp2313
g24
g70
sg29
g25
(g11
S'w\xab\x9d\x17\xdd0\xa0?'
p2314
tp2315
Rp2316
ssF57.59498156532168
(dp2317
g24
g47
sg29
g25
(g11
S'0\xc5\x0b\xd8\xc4\xb8\x99?'
p2318
tp2319
Rp2320
ssF281.6094622271093
(dp2321
g24
g28
sg29
g25
(g11
S'^\xbaI\x0c\x02\xda\x8b@'
p2322
tp2323
Rp2324
ssF101.80342760832208
(dp2325
g24
g70
sg29
g25
(g11
S'\xdf\xa6?\xfb\x91b\x0c@'
p2326
tp2327
Rp2328
ssF384.53683087503384
(dp2329
g24
g28
sg29
g25
(g11
S',\xd5\x05\xbc\xcc0\xe4?'
p2330
tp2331
Rp2332
ssF113.38130866692951
(dp2333
g24
g70
sg29
g25
(g11
S'~5\x07\x08\xe6\xe8\x01@'
p2334
tp2335
Rp2336
ssF134.0281820446608
(dp2337
g24
g70
sg29
g25
(g11
S'\x10\xd6\xb5\xac\xb1:\x90?'
p2338
tp2339
Rp2340
ssF86.478690747093
(dp2341
g24
g117
sg29
g25
(g11
S'?+z\xf1\x8f\x08w?'
p2342
tp2343
Rp2344
ssF51.26066528419128
(dp2345
g24
g47
sg29
g25
(g11
S'xE\xf0\xbf\x95\xec\xff?'
p2346
tp2347
Rp2348
ssF27.198942272326562
(dp2349
g24
g47
sg29
g25
(g11
S'5^\xbaI\x0cfo@'
p2350
tp2351
Rp2352
ssF136.19578708669894
(dp2353
g24
g70
sg29
g25
(g11
S'\x9c\xdf0\xd1 \x85\xec?'
p2354
tp2355
Rp2356
ssF159.22300903917215
(dp2357
g24
g36
sg29
g25
(g11
S'\xb4\xc8v\xbe\x9f\xd2\x88@'
p2358
tp2359
Rp2360
ssF45.70267178846719
(dp2361
g24
g117
sg29
g25
(g11
S'\xbdR\x96!\x8eUF@'
p2362
tp2363
Rp2364
ssF239.5803111458057
(dp2365
g24
g36
sg29
g25
(g11
S'E\x13(b\x11\xc3\xc6?'
p2366
tp2367
Rp2368
ssF36.739384531209275
(dp2369
g24
g47
sg29
g25
(g11
S'.\xe2;1\xeb\xc5\x1f@'
p2370
tp2371
Rp2372
ssF88.08944162974178
(dp2373
g24
g70
sg29
g25
(g11
S'\xc5 \xb0rh\x9dq@'
p2374
tp2375
Rp2376
ssF158.73131259457938
(dp2377
g24
g36
sg29
g25
(g11
S'}?5^\xba\x92\x81@'
p2378
tp2379
Rp2380
ssF277.246072714604
(dp2381
g24
g28
sg29
g25
(g11
S'\xcf\xf7S\xe3\xa5\xcfc@'
p2382
tp2383
Rp2384
ssF116.46297729964898
(dp2385
g24
g70
sg29
g25
(g11
S'xE\xf0\xbf\x95\xec\xff?'
p2386
tp2387
Rp2388
ssF56.904569165999206
(dp2389
g24
g47
sg29
g25
(g11
S'\xa9D#\xe9\xe4Vb?'
p2390
tp2391
Rp2392
ssF209.99285060312903
(dp2393
g24
g36
sg29
g25
(g11
S'\x08N\xc7\xad\x93D\x80?'
p2394
tp2395
Rp2396
ssF97.7264499216475
(dp2397
g24
g117
sg29
g25
(g11
S'wH1@\xa2\t\xd2?'
p2398
tp2399
Rp2400
ssF258.5681941222256
(dp2401
g24
g28
sg29
g25
(g11
S'\x0eO\xaf\x94e\xc81@'
p2402
tp2403
Rp2404
ssF353.4201506698645
(dp2405
g24
g28
sg29
g25
(g11
S'\xdfB\r\x955\xa0T?'
p2406
tp2407
Rp2408
ssF56.917600864067055
(dp2409
g24
g47
sg29
g25
(g11
S'\xael\xd5d|Np?'
p2410
tp2411
Rp2412
ssF72.8141447557633
(dp2413
g24
g117
sg29
g25
(g11
S'\x0e2\xc9\xc8Y\x18\x04@'
p2414
tp2415
Rp2416
ssF138.81707272990653
(dp2417
g24
g70
sg29
g25
(g11
S'\xb6\x08\xd6\x82(\xa9\xa9?'
p2418
tp2419
Rp2420
ssF156.2781324462148
(dp2421
g24
g36
sg29
g25
(g11
S'F\xb6\xf3\xfd\xd4\xf0h@'
p2422
tp2423
Rp2424
ssF57.01725656594588
(dp2425
g24
g47
sg29
g25
(g11
S'{\x14\xaeG\xe1z\x84?'
p2426
tp2427
Rp2428
ssF377.6419593234146
(dp2429
g24
g28
sg29
g25
(g11
S'g\t\xd7H\xb7\xca\xac?'
p2430
tp2431
Rp2432
ssF89.12579153024356
(dp2433
g24
g70
sg29
g25
(g11
S'\xa2E\xb6\xf3\xfdR\x7f@'
p2434
tp2435
Rp2436
ssF233.30553901603724
(dp2437
g24
g36
sg29
g25
(g11
S'\xab_\xe9|x\x96\xdc?'
p2438
tp2439
Rp2440
ssF57.574589955078444
(dp2441
g24
g117
sg29
g25
(g11
S'wJ\x07\xeb\xff<\x19@'
p2442
tp2443
Rp2444
ssF87.30605979045718
(dp2445
g24
g117
sg29
g25
(g11
S'1ce\x8f\xab\xec\x96?'
p2446
tp2447
Rp2448
ssF86.78698638650485
(dp2449
g24
g117
sg29
g25
(g11
S'\x9a\xe5W\x18\xc7\xed\x8c?'
p2450
tp2451
Rp2452
ssF26.187293788690152
(dp2453
g24
g47
sg29
g25
(g11
S'.\xff!\xfd\xf6\x1dL@'
p2454
tp2455
Rp2456
ssF57.4614866233932
(dp2457
g24
g47
sg29
g25
(g11
S'1ce\x8f\xab\xec\x96?'
p2458
tp2459
Rp2460
sstp2461
.